ccopy_reg
_reconstructor
p0
(crequests.models
Response
p1
c__builtin__
object
p2
Ntp3
Rp4
(dp5
S'cookies'
p6
g0
(crequests.cookies
RequestsCookieJar
p7
g2
Ntp8
Rp9
(dp10
S'_now'
p11
I1434667371
sS'_policy'
p12
(icookielib
DefaultCookiePolicy
p13
(dp14
S'strict_rfc2965_unverifiable'
p15
I01
sS'strict_ns_domain'
p16
I0
sS'_allowed_domains'
p17
NsS'rfc2109_as_netscape'
p18
NsS'rfc2965'
p19
I00
sS'strict_domain'
p20
I00
sg11
I1434667371
sS'strict_ns_set_path'
p21
I00
sS'strict_ns_unverifiable'
p22
I00
sS'strict_ns_set_initial_dollar'
p23
I00
sS'hide_cookie2'
p24
I00
sS'_blocked_domains'
p25
(tsS'netscape'
p26
I01
sbsS'_cookies'
p27
(dp28
S'.airbnb.ca'
p29
(dp30
S'/'
p31
(dp32
S'sticky_locale'
p33
(icookielib
Cookie
p34
(dp35
S'comment'
p36
NsS'domain'
p37
g29
sS'name'
p38
g33
sS'domain_initial_dot'
p39
I01
sS'expires'
p40
I1497825770
sS'value'
p41
S'en'
p42
sS'domain_specified'
p43
I01
sS'_rest'
p44
(dp45
sS'version'
p46
I0
sS'port_specified'
p47
I00
sS'rfc2109'
p48
I00
sS'discard'
p49
I00
sS'path_specified'
p50
I01
sS'path'
p51
g31
sS'port'
p52
NsS'comment_url'
p53
NsS'secure'
p54
I01
sbsS'mdr_browser'
p55
(icookielib
Cookie
p56
(dp57
g36
Nsg37
S'.airbnb.ca'
p58
sg38
g55
sg39
I01
sg40
I1434674571
sg41
S'desktop'
p59
sg43
I01
sg44
(dp60
sg46
I0
sg47
I00
sg48
I00
sg49
I00
sg50
I01
sg51
g31
sg52
Nsg53
Nsg54
I00
sbsS'_csrf_token'
p61
(icookielib
Cookie
p62
(dp63
g36
Nsg37
S'.airbnb.ca'
p64
sg38
g61
sg39
I01
sg40
Nsg41
S'V4%24.airbnb.ca%24EVcsGSDWn6k%24k4-4lNryK_CMDKRIPMmh5_MHXgZO9bQ2lRFEEnuIP-4%3D'
p65
sg43
I01
sg44
(dp66
sg46
I0
sg47
I00
sg48
I00
sg49
I01
sg50
I01
sg51
g31
sg52
Nsg53
Nsg54
I01
sbsS'_user_attributes'
p67
(icookielib
Cookie
p68
(dp69
g36
Nsg37
S'.airbnb.ca'
p70
sg38
g67
sg39
I01
sg40
Nsg41
S'%7B%22curr%22%3A%22CAD%22%2C%22guest_exchange%22%3A1.22986%7D'
p71
sg43
I01
sg44
(dp72
sg46
I0
sg47
I00
sg48
I00
sg49
I01
sg50
I01
sg51
g31
sg52
Nsg53
Nsg54
I01
sbsS'flags'
p73
(icookielib
Cookie
p74
(dp75
g36
Nsg37
S'.airbnb.ca'
p76
sg38
g73
sg39
I01
sg40
Nsg41
S'268439552'
p77
sg43
I01
sg44
(dp78
sg46
I0
sg47
I00
sg48
I00
sg49
I01
sg50
I01
sg51
g31
sg52
Nsg53
Nsg54
I01
sbsS'bev'
p79
(icookielib
Cookie
p80
(dp81
g36
Nsg37
S'.airbnb.ca'
p82
sg38
g79
sg39
I01
sg40
I1497739370
sg41
S'1434667370_4Z9HSAgOvjH6ZoJM'
p83
sg43
I01
sg44
(dp84
sg46
I0
sg47
I00
sg48
I00
sg49
I00
sg50
I01
sg51
g31
sg52
Nsg53
Nsg54
I01
sbssssbsS'_content'
p85
S'<!DOCTYPE html>\n\n<!--[if lt IE 8]>\n\n<html lang="en-CA"\n      \n      xmlns:fb="http://ogp.me/ns/fb#"\n      class="ie">\n\n<![endif]-->\n\n<!--[if IE 8]>\n\n<html lang="en-CA"\n      \n      xmlns:fb="http://ogp.me/ns/fb#"\n      class="ie ie8">\n\n<![endif]-->\n\n<!--[if IE 9]>\n\n  <html lang="en-CA"\n      \n      xmlns:fb="http://ogp.me/ns/fb#"\n      class="ie ie9">\n\n<![endif]-->\n\n<!--[if (gt IE 9)|!(IE)]><!-->\n<html lang="en-CA"\n      \n      xmlns:fb="http://ogp.me/ns/fb#">\n\n<!--<![endif]-->\n\n  <head>\n      <link rel="dns-prefetch" href="//maps.googleapis.com">\n      <link rel="dns-prefetch" href="//maps.gstatic.com">\n      <link rel="dns-prefetch" href="//mts0.googleapis.com">\n      <link rel="dns-prefetch" href="//mts1.googleapis.com">\n\n    <!--[if IE]><![endif]-->\n    <meta charset="utf-8">\n\n    <!--[if IE 8]>\n      <link href="https://a0.muscache.com/airbnb/static/packages/common_o2.1_ie8-b8ed446c6d04605cba099cd7b35ee294.css" media="all" rel="stylesheet" type="text/css" />\n    <![endif]-->\n    <!--[if !(IE 8)]><!-->\n      <link href="https://a1.muscache.com/airbnb/static/packages/common_o2.1-d04416f95ad955fe3e06900a145f83c0.css" media="all" rel="stylesheet" type="text/css" />\n    <!--<![endif]-->\n\n    <!--[if lt IE 9]>\n      <link href="https://a0.muscache.com/airbnb/static/compatibility/airglyphs-ie8-7dbf8372f80fb3fd70a35c7acaf4b6ec.css" media="all" rel="stylesheet" type="text/css" />\n    <![endif]-->\n\n    <link href="https://a1.muscache.com/airbnb/static/packages/map_search-8541690c6776c49232483b42a077edc6.css" media="screen" rel="stylesheet" type="text/css" />\n    \n\n    <meta id="csrf-param-meta-tag" name="csrf-param" content="authenticity_token"/>\n    <meta id="csrf-token-meta-tag" name="csrf-token" content=""/>\n\n    <script>\n\n      var sherlock_firstbyte = Number(new Date());\n</script>\n\n    <title>San Francisco Sublets & Rooms for Rent - Airbnb</title>\n\n    <meta http-equiv="X-UA-Compatible" content="IE=edge,chrome=1">\n\n\n\n      <meta name="description" content="Monthly sublets in San Francisco from /month. Find unique places to stay with local hosts in 190 countries. Belong anywhere with Airbnb.">\n\n\n\n      <meta name="robots" content="noindex">\n\n      <meta property="og:image" content="https://a2.muscache.com/airbnb/static/logos/belo-400x400-084661b96df1341091ee5764587d8ed8.png">\n\n    <meta name="twitter:widgets:csp" content="on">\n\n\n\n\n    <meta name="viewport" content="width=device-width, initial-scale=1">\n    <link rel="image_src" href="https://a2.muscache.com/airbnb/static/logos/belo-200x200-4d851c5b28f61931bf1df28dd15e60ef.png">\n    <link rel="search" type="application/opensearchdescription+xml" href="/opensearch.xml" title="Airbnb">\n\n    <!--[if lte IE 9]>\n      <script src="https://a2.muscache.com/airbnb/static/packages/libs_ie_support-b79daf6f8ced9b9ee1d841fbcc88d2a7.js" type="text/javascript"></script>\n      <link href="https://a0.muscache.com/airbnb/respond-proxy.html" id="respond-proxy" rel="respond-proxy" />\n      <link href="/respond.proxy.gif" id="respond-redirect" rel="respond-redirect" />\n      <script src="/respond.proxy.js?cb=1"></script>\n    <![endif]-->\n\n    <meta name="mobile-web-app-capable" content="yes">\n\n    <meta name="theme-color" content="#f5f5f5">\n\n    <link rel="apple-touch-icon" href="https://a1.muscache.com/airbnb/static/icons/apple-touch-icon-76x76-29b6a802ddcbcada3e98c1336b078985.png" />\n<link rel="apple-touch-icon" sizes="76x76" href="https://a1.muscache.com/airbnb/static/icons/apple-touch-icon-76x76-29b6a802ddcbcada3e98c1336b078985.png" />\n<link rel="apple-touch-icon" sizes="120x120" href="https://a2.muscache.com/airbnb/static/icons/apple-touch-icon-120x120-f755fee8bec28959299b265351f0dee2.png" />\n<link rel="apple-touch-icon" sizes="152x152" href="https://a1.muscache.com/airbnb/static/icons/apple-touch-icon-152x152-51479ae43400e03b95a33f5119c65262.png" />\n<link rel="apple-touch-icon" sizes="180x180" href="https://a2.muscache.com/airbnb/static/icons/apple-touch-icon-180x180-830c8479ce4d0a3c9df95fdfeddf6faa.png" />\n<link rel="icon" sizes="192x192" href="https://a0.muscache.com/airbnb/static/icons/android-icon-192x192-ab82dea1266beaa15c85fbed5bc45702.png" />\n<link rel="shortcut icon" sizes="76x76" type="image/x-icon" href="https://a1.muscache.com/airbnb/static/logotype_favicon-21cc8e6c6a2cca43f061d2dcabdf6e58.ico" />\n\n\n  </head>\n  <body class="">\n    <a class="screen-reader-only screen-reader-only-focusable skip-to-content"\n       data-hook="skip-to-content"\n       tabindex="1"\n       href="#site-content">\n      Skip to content\n    </a>\n\n    <span class="screen-reader-only">\n      Airbnb\n    </span>\n\n    <noscript><iframe src="https://www.googletagmanager.com/ns.html?id=GTM-46MK"\nheight="0" width="0" style="display:none;visibility:hidden"></iframe></noscript>\n\n\n\n\n    <meta content="{&quot;flags&quot;:{&quot;name&quot;:&quot;flags&quot;,&quot;value&quot;:{&quot;can_see_community&quot;:2,&quot;og_publish&quot;:16,&quot;has_wishlisted&quot;:32,&quot;update_cached&quot;:64,&quot;revert_to_admin&quot;:128,&quot;facebook_connected&quot;:256,&quot;erf_override&quot;:512,&quot;has_search&quot;:1024,&quot;search_help_dropdown&quot;:2048,&quot;has_dates&quot;:4096,&quot;can_see_notifications_tooltip&quot;:8192,&quot;can_send_profile_messages&quot;:32768,&quot;just_logged_in&quot;:65536,&quot;has_been_host&quot;:131072,&quot;should_drop_pellet&quot;:262144,&quot;field_guide_preload&quot;:524288,&quot;is_active_host&quot;:1048576,&quot;is_vr_platform_powered_host&quot;:67108864,&quot;can_see_meetups&quot;:134217728,&quot;should_drop_sift_pellet&quot;:268435456,&quot;can_see_groups&quot;:536870912,&quot;has_verified_phone&quot;:1073741824,&quot;has_profile_pic&quot;:2147483648}},&quot;roles&quot;:{&quot;name&quot;:&quot;roles&quot;,&quot;value&quot;:{&quot;is_content_manager&quot;:1048576,&quot;is_stats_admin&quot;:16777216}},&quot;user_attributes&quot;:{&quot;name&quot;:&quot;_user_attributes&quot;}}" id="_bootstrap-user-attr-cookies" />\n<meta content="{&quot;tld_country&quot;:&quot;CA&quot;}" id="_bootstrap-header-init" />\n<meta content="{&quot;inspectlet_on_guest&quot;:{&quot;subject&quot;:&quot;bev&quot;,&quot;buckets&quot;:2,&quot;percent_exposed&quot;:1,&quot;treatments&quot;:[{&quot;name&quot;:&quot;control&quot;,&quot;buckets&quot;:null},{&quot;name&quot;:&quot;inspectlet_active&quot;,&quot;buckets&quot;:null}]},&quot;p2_remarketing_test&quot;:{&quot;subject&quot;:&quot;bev&quot;,&quot;buckets&quot;:2,&quot;percent_exposed&quot;:100,&quot;treatments&quot;:[{&quot;name&quot;:&quot;control&quot;,&quot;buckets&quot;:null},{&quot;name&quot;:&quot;show_remarketing_ad&quot;,&quot;buckets&quot;:null}]},&quot;p2_pois_all&quot;:{&quot;subject&quot;:&quot;bev&quot;,&quot;buckets&quot;:2,&quot;percent_exposed&quot;:100,&quot;treatments&quot;:[{&quot;name&quot;:&quot;control&quot;,&quot;buckets&quot;:null},{&quot;name&quot;:&quot;pois&quot;,&quot;buckets&quot;:null}]},&quot;p2_pois_exposed&quot;:{&quot;subject&quot;:&quot;bev&quot;,&quot;buckets&quot;:2,&quot;percent_exposed&quot;:100,&quot;treatments&quot;:[{&quot;name&quot;:&quot;control&quot;,&quot;buckets&quot;:null},{&quot;name&quot;:&quot;pois&quot;,&quot;buckets&quot;:null}]},&quot;p2_p3_encourage_dates_messaging_v2&quot;:{&quot;subject&quot;:&quot;bev&quot;,&quot;buckets&quot;:3,&quot;percent_exposed&quot;:100,&quot;treatments&quot;:[{&quot;name&quot;:&quot;control&quot;,&quot;buckets&quot;:null},{&quot;name&quot;:&quot;illustration_and_message&quot;,&quot;buckets&quot;:null},{&quot;name&quot;:&quot;simple_message&quot;,&quot;buckets&quot;:null}]},&quot;p2_remove_keywords_filter&quot;:{&quot;subject&quot;:&quot;bev&quot;,&quot;buckets&quot;:2,&quot;percent_exposed&quot;:100,&quot;treatments&quot;:[{&quot;name&quot;:&quot;control&quot;,&quot;buckets&quot;:null},{&quot;name&quot;:&quot;remove_keywords_filter&quot;,&quot;buckets&quot;:null}]},&quot;p2_remove_language_filter&quot;:{&quot;subject&quot;:&quot;bev&quot;,&quot;buckets&quot;:2,&quot;percent_exposed&quot;:100,&quot;treatments&quot;:[{&quot;name&quot;:&quot;control&quot;,&quot;buckets&quot;:null},{&quot;name&quot;:&quot;remove_language_filter&quot;,&quot;buckets&quot;:null}]},&quot;p2_remove_property_type_filter&quot;:{&quot;subject&quot;:&quot;bev&quot;,&quot;buckets&quot;:100,&quot;percent_exposed&quot;:100,&quot;treatments&quot;:[{&quot;name&quot;:&quot;control&quot;,&quot;buckets&quot;:100},{&quot;name&quot;:&quot;remove_property_type_filter&quot;,&quot;buckets&quot;:0}]},&quot;field_guide3&quot;:{&quot;subject&quot;:&quot;bev&quot;,&quot;buckets&quot;:2,&quot;percent_exposed&quot;:100,&quot;treatments&quot;:[{&quot;name&quot;:&quot;baseline&quot;,&quot;buckets&quot;:null},{&quot;name&quot;:&quot;show_guide&quot;,&quot;buckets&quot;:null}]},&quot;the_new_header_take_3&quot;:{&quot;subject&quot;:&quot;bev&quot;,&quot;buckets&quot;:2,&quot;percent_exposed&quot;:100,&quot;treatments&quot;:[{&quot;name&quot;:&quot;new_header&quot;,&quot;buckets&quot;:null},{&quot;name&quot;:&quot;old_header&quot;,&quot;buckets&quot;:null}]},&quot;global_recently_viewed&quot;:{&quot;subject&quot;:&quot;bev&quot;,&quot;buckets&quot;:2,&quot;percent_exposed&quot;:100,&quot;treatments&quot;:[{&quot;name&quot;:&quot;control&quot;,&quot;buckets&quot;:null},{&quot;name&quot;:&quot;global_recently_viewed&quot;,&quot;buckets&quot;:null}]},&quot;p1_search_autocomplete_bounds&quot;:{&quot;subject&quot;:&quot;bev&quot;,&quot;buckets&quot;:2,&quot;percent_exposed&quot;:100,&quot;treatments&quot;:[{&quot;name&quot;:&quot;control&quot;,&quot;buckets&quot;:null},{&quot;name&quot;:&quot;experiment&quot;,&quot;buckets&quot;:null}]}}" id="_bootstrap-erf" />\n\n\n    <div class="smart-banner" aria-hidden="true" role="banner">\n  <a href="#" class="icon icon-remove icon-size-1 pull-left link-reset banner-close">\n    <span class="screen-reader-only">\n      Close\n    </span>\n  </a>\n  <a href="#"\n     data-href="http://r.yoz.io/l.c.hsjS"\n     data-href-alt="http://r.yoz.io/l.c.hskj"\n     class="pull-left app-icon install-link action-link">\n    <span class="screen-reader-only">\n      Install\n    </span>\n  </a>\n  <div class="banner-content">\n    <div class="banner-title space-top-sm-1 space-top-md-3">\n      <strong class="icon-dark-gray ios-item">\n        Airbnb for iOS\n      </strong>\n      <strong class="icon-dark-gray android-item hide">\n        Airbnb for Android\n      </strong>\n      <br class="android-item hide">\n      <br class="ios-item hide-sm">\n      <div class="star-rating">\n        <i class="icon icon-beach icon-star"></i>\n        <i class="icon icon-beach icon-star"></i>\n        <i class="icon icon-beach icon-star"></i>\n        <i class="icon icon-beach icon-star"></i>\n        <i class="icon icon-star icon-light-gray"></i>\n      </div>\n      <small class="banner-reviews icon-gray ios-item">(5,268)</small>\n      <small class="banner-reviews icon-gray android-item hide">(60,813)</small>\n    </div>\n    <div class="banner-buttons text-right space-top-sm-2 space-top-md-4">\n      <a class="link-reset btn btn-primary btn-small banner-button install-link action-link"\n         href="#"\n         data-href="http://r.yoz.io/l.c.hsjS"\n         data-href-alt="http://r.yoz.io/l.c.hskj">\n        Install\n      </a>\n      <a class="btn btn-small banner-button open-in-app-button action-link"\n         href="airbnb://"\n         data-href="airbnb://"\n         data-backup-href="http://r.yoz.io/l.c.hsjS"\n         data-backup-href-alt="http://r.yoz.io/l.c.hskj">\n         Open in App\n      </a>\n    </div>\n  </div>\n</div>\n\n\n    <div id="header" class="airbnb-header new">\n\n  <header class="header--sm show-sm" aria-hidden="true" role="banner">\n  <a href="#"\n     aria-label="Homepage"\n     data-prevent-default\n     class="link-reset burger--sm">\n    <i class="icon icon-reorder icon-rausch"></i>\n    <span class="screen-reader-only">\n      Airbnb\n    </span>\n  </a>\n  <div class="title--sm text-center">\n      <button class="btn btn-block search-btn--sm search-modal-trigger">\n        <i class="icon icon-search icon-gray"></i>\n        <span class="search-placeholder--sm">\n          Where are you going?\n        </span>\n      </button>\n  </div>\n  <div class="action--sm"></div>\n  <nav class="nav--sm" role="navigation"></nav>\n  <div class="search-modal-container"></div>\n</header>\n\n\n  <header class="regular-header clearfix hide-sm" id="old-header" role="banner">\n  <a aria-label="Homepage"\n     href="/"\n     class="header-belo pull-left">\n    <span class="screen-reader-only">\n      Airbnb\n    </span>\n  </a>\n\n  <ul class="nav pull-left hide-sm list-unstyled search-form-container"\n    id="search-form-header">\n  <li id="header-search" class="search-bar-wrapper pull-left medium-right-margin">\n    <form action="/s" id="search-form" class="search-form">\n      <div class="search-bar">\n        <i class="icon icon-search icon-gray h4"></i>\n        <label for="input-location" class="screen-reader-only">\n          Where are you going?\n        </label>\n        <input type="text"\n               id="input-location"\n               placeholder="Where are you going?"\n               autocomplete="off"\n               name="location"\n                data-p2="true"\n                value="San Francisco, CA, United States"\n               data-date-placeholder="dd-mm-yyyy"\n               class="location" />\n        <input type="hidden" name="source" value="hdr" />\n      </div>\n    </form>\n  </li>\n  <li class="dropdown-trigger pull-left large-right-margin hide-sm hide" data-behavior="recently-viewed__container">\n    <a class="link-reset"\n      href="/history#docked-filters"\n      data-behavior="recently-viewed__trigger"\n    >\n      <span class="show-lg recently-viewed__label">\n        Recently Viewed\n      </span>\n      <span class="hide-lg recently-viewed__label">\n        <i class="icon icon-recently-viewed icon-gray h4"></i>\n      </span>\n      <i class="icon icon-caret-down icon-light-gray h5"></i>\n    </a>\n    <div class="tooltip tooltip-top-left dropdown-menu recently-viewed__dropdown"\n      data-behavior="recently-viewed__dropdown">\n    </div>\n  </li>\n    <li class="browse-container dropdown-trigger pull-left hide-md">\n      <a class="link-reset header-browse-trigger"\n   href="#"\n   data-prevent-default\n   id="header-browse-trigger">\n  Browse\n   <i class="icon icon-caret-down icon-light-gray h5"></i>\n</a>\n<ul class="tooltip tooltip-top-left dropdown-menu list-unstyled">\n  <li>\n    <a href="/wishlists/popular"\n       class="link-reset menu-item header-browse-popular">\n      Popular\n    </a>\n  </li>\n  <li>\n    <a href="/wishlists/friends"\n       class="link-reset menu-item header-browse-friends">\n      Friends\n    </a>\n  </li>\n  <li>\n    <a href="/locations"\n       class="link-reset menu-item header-browse-neighborhoods">\n      Neighbourhoods\n    </a>\n  </li>\n  <li class="groups hide">\n    <a href="#"\n       data-href="/groups"\n       rel="nofollow"\n       class="no-crawl link-reset menu-item header-browse-groups">\n      Groups\n    </a>\n  </li>\n  <li>\n    <a href="/vacation-rentals"\n       class="link-reset menu-item header-browse-vacation-rentals">\n      Vacation Rentals\n    </a>\n  </li>\n</ul>\n\n    </li>\n</ul>\n\n\n  <ul class="nav pull-right help-menu list-unstyled">\n  <li id=\'header-help-menu\'\n      class="help-menu-container pull-left large-right-margin hide-md dropdown-trigger">\n    <a id="header-help-trigger"\n       class="help-toggle link-reset"\n       href="/help">\n      Help\n      <i class="icon icon-caret-down icon-light-gray h5"></i>\n    </a>\n    <div class="tooltip tooltip-top-right dropdown-menu help-dropdown">\n      <ul class="list-layout">\n  <li class="search-bar--help hide">\n    <form action="/help/search" class="search-form--help menu-item">\n      <div class="input-addon">\n        <input type="text"\n               placeholder="Search the help centre"\n               autocomplete="off"\n               name="q"\n               class="input-stem" />\n        <input type="hidden" name="search_from" value="hdr" />\n        <i class="btn btn-primary icon icon-search input-suffix form-submit--help"></i>\n      </div>\n    </form>\n  </li>\n  <li class="visit-helpcenter-cta hide">\n    <a href="/help" class="help-center-link menu-item">\n      Visit the Help Centre &#187;\n    </a>\n  </li>\n  <li class="loading"></li>\n  <li class="all_faqs hide">\n    <a href="/help" class="link-reset menu-item">\n      See all FAQs\n    </a>\n  </li>\n</ul>\n\n    </div>\n  </li>\n    <li class="list-your-space pull-left">\n        <a id="list-your-space" class="btn btn-special list-your-space-btn hide" href="/rooms/new">\n          List Your Space\n        </a>\n    </li>\n</ul>\n<div id="help-panel-modal">\n</div>\n\n\n  <ul class="nav pull-right logged-out list-unstyled medium-right-margin">\n  <li id="sign_up" class="pull-left medium-right-margin">\n    <a data-signup-modal\n       data-header-view="true"\n       href="/signup_login"\n       data-redirect="redirect_params[action]=index&amp;redirect_params[checkin]=07-09-2015&amp;redirect_params[checkout]=07-11-2015&amp;redirect_params[controller]=search&amp;redirect_params[guests]=2&amp;redirect_params[locale]=en&amp;redirect_params[location]=San+Francisco%2C+CA%2C+United+States&amp;redirect_params[path_location]=San-Francisco--CA--United-States&amp;redirect_params[price_max]=400"\n       class="link-reset">\n      Sign Up\n    </a>\n  </li>\n  <li id="login" class="pull-left">\n    <a data-login-modal\n       href="/login"\n       data-redirect="redirect_params[action]=index&amp;redirect_params[checkin]=07-09-2015&amp;redirect_params[checkout]=07-11-2015&amp;redirect_params[controller]=search&amp;redirect_params[guests]=2&amp;redirect_params[locale]=en&amp;redirect_params[location]=San+Francisco%2C+CA%2C+United+States&amp;redirect_params[path_location]=San-Francisco--CA--United-States&amp;redirect_params[price_max]=400"\n       class="link-reset">\n      Log In\n    </a>\n  </li>\n</ul>\n\n\n\n  <ul class="nav pull-right logged-in list-unstyled medium-right-margin">\n  <li id="inbox-item" class="inbox-item pull-left dropdown-trigger inbox-comp">\n    <a href="#"\n       data-href="/inbox"\n       rel="nofollow"\n       class="no-crawl link-reset inbox-icon">\n      <i class="alert-count fade text-center">0</i>\n      <i class="icon icon-envelope icon-gray">\n        <span class="text-hide hide">\n          Inbox\n        </span>\n      </i>\n    </a>\n    <div class="tooltip tooltip-top-right dropdown-menu list-unstyled header-dropdown\n                notifications-dropdown hide">\n    </div>\n  </li>\n</ul>\n\n\n  <ul class="nav pull-right logged-in list-unstyled" role="navigation">\n  <li class="user-item pull-left medium-right-margin dropdown-trigger">\n    <a class="link-reset header-avatar-trigger"\n       id="header-avatar-trigger"\n       href="#">\n      <div class="media-photo media-round user-profile-image"></div>\n      <span class="value_name">\n        User\n      </span>\n      <i class="icon icon-caret-down icon-light-gray h5"></i>\n    </a>\n    <ul class="tooltip tooltip-top-right dropdown-menu list-unstyled header-dropdown">\n      <li>\n        <a href="#"\n           data-href="/home/dashboard"\n           rel="nofollow"\n           class="no-crawl link-reset menu-item item-dashboard">\n          Dashboard\n        </a>\n      </li>\n      <li class="listings">\n        <a href="#"\n           data-href="/rooms"\n           rel="nofollow"\n           class="no-crawl link-reset menu-item item-listing">\n          <span class="singular" style="display: none;">\n            Your Listing\n          </span>\n          <span class="plural">\n            Your Listings\n          </span>\n        </a>\n      </li>\n      <li class="reservations" style="display: none;">\n        <a href="#"\n           data-href="/my_reservations"\n           rel="nofollow"\n           class="no-crawl link-reset menu-item item-reservation">\n           Your Reservations\n        </a>\n      </li>\n      <li>\n        <a href="#"\n           data-href="/trips/upcoming"\n           rel="nofollow"\n           class="no-crawl link-reset menu-item item-trips">\n          Your Trips\n        </a>\n      </li>\n      <li>\n        <a href="#"\n           data-href="/wishlists/my"\n           id="wishlists"\n           class="no-crawl link-reset menu-item item-wishlists">\n          Wish Lists\n        </a>\n      </li>\n      <li class="groups">\n        <a href="#"\n           data-href="/groups"\n           rel="nofollow"\n           class="no-crawl link-reset menu-item item-groups">\n          Groups\n        </a>\n      </li>\n      <li>\n        <a href="#"\n           data-href="/invite?r=3"\n           class="no-crawl link-reset menu-item item-invite-friends">\n          Invite Friends\n          <span class="label label-pink label-new">\n            New\n          </span>\n        </a>\n      </li>\n      <li>\n        <a href="#"\n           data-href="/users/edit"\n           rel="nofollow"\n           class="no-crawl link-reset menu-item item-user-edit">\n          Edit Profile\n        </a>\n      </li>\n      <li>\n        <a href="#"\n           data-href="/account"\n           rel="nofollow"\n           class="no-crawl link-reset menu-item item-account">\n          Account\n        </a>\n      </li>\n      <li>\n        <a href="#"\n           data-href="/logout"\n           rel="nofollow"\n           class="no-crawl link-reset menu-item header-logout">\n          Log Out\n        </a>\n      </li>\n    </ul>\n  </li>\n</ul>\n\n</header>\n\n\n  <div class="regular-header regular-header--new clearfix hide-sm" id="new-header">\n\n  \n<div class="comp pull-left">\n  <a href="/" class="hdr-btn link-reset belo-container">\n    <i class="icon icon-pos--lower icon-rausch icon-airbnb-alt h2 show-login"></i>\n    <i class="icon icon-pos--lower icon-rausch icon-airbnb show-logout"></i>\n  </a>\n</div>\n\n\n    <div class="comp pull-left search-bar-wrapper">\n    <form action="/s" class="search-form">\n      <div class="search-bar">\n        <i class="icon icon-search icon-gray h4"></i>\n        <input type="text"\n               placeholder="Where are you going?"\n               autocomplete="off"\n               name="location"\n                data-p2="true"\n                value="San Francisco, CA, United States"\n               data-date-placeholder="dd-mm-yyyy"\n               class="location" />\n        <input type="hidden" name="source" value="hdr" />\n      </div>\n    </form>\n  </div>\n\n\n  <div class="comp pull-right help-trigger-wrapper no-border background-light-gray ">\n  <a class="hdr-btn help-toggle link-reset"\n     href="/help">\n  Help\n  </a>\n  <div class="panel tooltip tooltip-top-right drop-down-menu help-dropdown">\n    <ul class="menu-list list-layout">\n      <li class="menu-list__item-block loading"></li>\n      <li class="search-bar--help hide">\n        <form action="/help/search" class="search-form--help menu-list__item-block">\n          <div class="input-addon">\n            <input type="text"\n                   placeholder="Search the help centre"\n                   autocomplete="off"\n                   name="q"\n                   class="input-stem" />\n            <input type="hidden" name="search_from" value="hdr" />\n            <i class="btn btn-primary icon icon-search input-suffix form-submit--help"></i>\n          </div>\n        </form>\n      </li>\n      <li class="menu-list__item">\n        <a href="/help" class="visit-helpcenter-cta help-center-link menu-list__item-block hide">\n          Visit the Help Centre &#187;\n        </a>\n      </li>\n      <li>\n        <a href="/help" class="all_faqs link-reset menu-list__item-block hide">\n          See all FAQs\n        </a>\n      </li>\n    </ul>\n  </div>\n</div>\n\n\n  \n<div class="comp pull-right show-login">\n  <a class="no-crawl hdr-btn link-reset header-avatar-trigger"\n     rel="nofollow"\n     href="#"\n     data-href="/dashboard"\n     data-href-host="/trips">\n    <div class="media-photo media-round normal-line-height user-profile-image margin-right--tiny"></div>\n    <span class="value_name margin-right--tiny hide-md"></span>\n    <i class="icon-chevron-down-alt hide-md icon-chevron-down-alt-gray"></i>\n  </a>\n  <div class="panel tooltip tooltip-top-right drop-down-menu avatar-tooltip--new">\n    <ul class="menu-list list-layout">\n        <li class="menu-list__item">\n            <a href="#" class="no-crawl menu-list__item-block link-reset" data-href="/trips">Your Trips</a>\n        </li>\n        <li class="menu-list__item">\n            <a href="#" class="no-crawl menu-list__item-block link-reset" data-href="/wishlists/popular">Wish Lists</a>\n        </li>\n        <li class="menu-list__item">\n            <a href="#" class="no-crawl menu-list__item-block link-reset" data-href="/users/edit">Edit Profile</a>\n        </li>\n        <li class="menu-list__item">\n            <a href="/invite" class="menu-list__item-block link-reset">Invite Friends</a>\n        </li>\n        <li class="menu-list__item">\n            <a href="#" class="no-crawl menu-list__item-block link-reset" data-href="/users/notifications">Account Settings</a>\n        </li>\n        <li class="menu-list__item">\n            <a href="#" class="no-crawl menu-list__item-block link-reset" data-href="/logout">Log Out</a>\n        </li>\n    </ul>\n  </div>\n</div>\n\n\n  \n<div class="comp pull-right show-login">\n  <a class="no-crawl hdr-btn link-reset inbox-comp "\n     href="#"\n     data-href="/inbox"\n     rel="nofollow">\n    <div class="inbox-icon-container text-center">\n      <i class="icon icon-envelope h3 icon-pos--lower icon-gray">\n        <span class="text-hide hide">Inbox</span>\n      </i>\n      <i class="alert-count text-center fade">0</i>\n    </div>\n  </a>\n\n  <div class="tooltip tooltip-top-right panel drop-down-menu notifications-dropdown hide">\n  </div>\n\n</div>\n\n\n  <div class="comp pull-right show-logout">\n  <a data-signup-modal="" data-header-view="true"\n     href="/signup_login"\n     data-redirect="redirect_params[action]=index&amp;redirect_params[checkin]=07-09-2015&amp;redirect_params[checkout]=07-11-2015&amp;redirect_params[controller]=search&amp;redirect_params[guests]=2&amp;redirect_params[locale]=en&amp;redirect_params[location]=San+Francisco%2C+CA%2C+United+States&amp;redirect_params[path_location]=San-Francisco--CA--United-States&amp;redirect_params[price_max]=400"\n     class="hdr-btn link-reset">\n    Sign Up\n  </a>\n</div>\n<div class="comp pull-right show-logout">\n  <a data-login-modal=""\n     href="/login"\n     data-redirect="redirect_params[action]=index&amp;redirect_params[checkin]=07-09-2015&amp;redirect_params[checkout]=07-11-2015&amp;redirect_params[controller]=search&amp;redirect_params[guests]=2&amp;redirect_params[locale]=en&amp;redirect_params[location]=San+Francisco%2C+CA%2C+United+States&amp;redirect_params[path_location]=San-Francisco--CA--United-States&amp;redirect_params[price_max]=400"\n     class="hdr-btn link-reset">\n    Log In\n  </a>\n</div>\n\n\n  \n<div class="comp pull-right">\n  <div>\n    <a class="no-crawl hdr-btn link-reset  show-host"\n       href="#"\n       rel="nofollow"\n       data-href="/dashboard">\n      <i class="icon icon-host-home-alt h3 margin-right--small icon-pos--lower icon-gray"></i>\n      <span class="hide-md margin-right--tiny">\n        Host\n      </span>\n      <i class="icon-chevron-down-alt hide-md icon-chevron-down-alt-gray"></i>\n    </a>\n    <a class="hdr-btn link-reset  hide-host"\n       href="/rooms/new">\n      <i class="icon icon-host-home-alt h3 margin-right--small icon-pos--lower icon-gray"></i>\n      <span class="hide-md margin-right--tiny">\n        Become a Host\n      </span>\n      <i class="icon-chevron-down-alt hide-md icon-chevron-down-alt-gray"></i>\n    </a>\n  </div>\n\n  <div class="panel tooltip tooltip-top-right drop-down-menu host-tooltip--new">\n    <ul class="menu-list list-layout">\n        <li class="menu-list__item show-host">\n            <a href="#" class="no-crawl menu-list__item-block link-reset" data-href="/dashboard">Dashboard</a>\n        </li>\n        <li class="menu-list__item hide-host">\n            <a href="/host" class="menu-list__item-block link-reset">Why Host</a>\n        </li>\n        <li class="menu-list__item list-your-space-btn">\n            <a href="/rooms/new" class="menu-list__item-block link-reset">List Your Space</a>\n        </li>\n        <li class="menu-list__item show-host">\n            <a href="#" class="no-crawl menu-list__item-block link-reset" data-href="/rooms">Manage Listings</a>\n        </li>\n        <li class="menu-list__item show-host">\n            <a href="#" class="no-crawl menu-list__item-block link-reset" data-href="/my_reservations">Your Reservations</a>\n        </li>\n        <li class="menu-list__item show-host">\n            <a href="#" class="no-crawl menu-list__item-block link-reset" data-href="/users/reviews">Reviews</a>\n        </li>\n        <li class="menu-list__item show-host">\n            <a href="#" class="no-crawl menu-list__item-block link-reset" data-href="/groups">Groups</a>\n        </li>\n        <li class="menu-list__item ">\n            <a href="/hospitality" class="menu-list__item-block link-reset">Hospitality</a>\n        </li>\n    </ul>\n  </div>\n</div>\n\n\n  \n<div class="comp pull-right hide" data-behavior="recently-viewed__container">\n  <div>\n    <a class="no-crawl hdr-btn link-reset "\n       href="#"\n       rel="nofollow"\n       data-href="/history#docked-filters"\n       data-behavior="recently-viewed__trigger"\n    >\n      <i class="icon icon-recently-viewed h3 margin-right--small icon-pos--lower icon-gray"></i>\n      <span class="hide-md margin-right--tiny">\n        Recently Viewed\n      </span>\n      <i class="icon-chevron-down-alt hide-md icon-chevron-down-alt-gray"></i>\n    </a>\n  </div>\n\n  <div class="panel tooltip tooltip-top-right drop-down-menu host-tooltip--new recently-viewed__dropdown"\n    data-behavior="recently-viewed__dropdown">\n  </div>\n</div>\n\n</div>\n\n</div>\n\n    <noscript>\n<div class="alert alert-with-icon alert-error  no-js-alert"\n     >\n  <i class="icon alert-icon icon-alert-alt"></i>\n        We\xe2\x80\x99re sorry, some parts of the Airbnb website don\xe2\x80\x99t work properly without JavaScript enabled.\n\n</div>\n</noscript>\n\n\n\n    <script src="https://a1.muscache.com/airbnb/static/packages/header_cookie-768c0ca5c178ed278b99aef17e7bd7e0.js" type="text/javascript"></script>\n\n    <script>\n\n      (function () {\n        var initData = BootstrapData.get(\'header-init\');\n        var country = initData ? initData.tld_country : "US";\n        var headerContainer = document.getElementById(\'header\');\n        var newHeader = document.getElementById(\'new-header\');\n        var oldHeader = document.getElementById(\'old-header\');\n        var useNewHeader = function () {\n          J(document.body).addClass(\'with-new-header\');\n          headerContainer.removeChild(oldHeader);\n        };\n        var useOldHeader = function () {\n          headerContainer.removeChild(newHeader);\n        };\n\n        if (country === "IT" || country === "TW" || country === "CA") {\n          Airbnb.ERF.deliverExperiment(\n            \'the_new_header_take_3\',\n            {\n              new_header: useNewHeader,\n              old_header: useOldHeader,\n              treatment_unknown: useOldHeader\n            }\n          );\n        } else {\n          useOldHeader();\n        }\n      })();\n</script>\n      <div class="flash-container"></div>\n\n    <main id="site-content" role="main">\n      \n\n\n\n\n\n\n\n<div class="map-search" data-bootstrap-data="{&quot;checkin&quot;:&quot;07-09-2015&quot;,&quot;checkout&quot;:&quot;07-11-2015&quot;,&quot;guests&quot;:&quot;2&quot;,&quot;locale&quot;:&quot;en&quot;,&quot;price_max&quot;:&quot;400&quot;,&quot;controller&quot;:&quot;search&quot;,&quot;action&quot;:&quot;index&quot;,&quot;path_location&quot;:&quot;San-Francisco--CA--United-States&quot;,&quot;location&quot;:&quot;San Francisco, CA, United States&quot;,&quot;visible_results_count&quot;:0,&quot;results_count_string&quot;:&quot;0 Rentals &amp;middot; San Francisco&quot;,&quot;urgent_header_string&quot;:null,&quot;urgent_div_class&quot;:null,&quot;per_month&quot;:true,&quot;center_lat&quot;:37.7749295,&quot;center_lng&quot;:-122.4194155,&quot;geo&quot;:{&quot;accuracy&quot;:4,&quot;district&quot;:null,&quot;city&quot;:&quot;San Francisco&quot;,&quot;state&quot;:&quot;California&quot;,&quot;country&quot;:&quot;United States&quot;,&quot;country_code&quot;:&quot;US&quot;,&quot;state_short&quot;:&quot;CA&quot;,&quot;natural_feature&quot;:null,&quot;result_type&quot;:&quot;locality&quot;,&quot;colloquial_area&quot;:null,&quot;success?&quot;:true,&quot;market&quot;:&quot;San Francisco&quot;},&quot;s_tag&quot;:&quot;tdKD&quot;,&quot;pagination_footer&quot;:&quot;&lt;div class=\\&quot;results-footer\\&quot;&gt;\\n\\n  &lt;div class=\\&quot;pagination-buttons-container row-space-8\\&quot;&gt;\\n    &lt;div class=\\&quot;results_count\\&quot;&gt;\\n      &lt;p&gt;\\n        \\n      &lt;/p&gt;\\n    &lt;/div&gt;\\n    \\n  &lt;/div&gt;\\n\\n  &lt;div class=\\&quot;nearby-links\\&quot;&gt;\\n    People also stay in &lt;span class=\\&quot;text-muted\\&quot;&gt;\\n    &lt;a href=\\&quot;/s/Oakland--CA\\&quot;&gt;\\n      Oakland\\n    &lt;/a&gt; &amp;middot; \\n    &lt;a href=\\&quot;/s/Berkeley--CA\\&quot;&gt;\\n      Berkeley\\n    &lt;/a&gt; &amp;middot; \\n    &lt;a href=\\&quot;/s/Santa-Cruz--CA\\&quot;&gt;\\n      Santa Cruz\\n    &lt;/a&gt; &amp;middot; \\n    &lt;a href=\\&quot;/s/San-Jose--CA\\&quot;&gt;\\n      San Jose\\n    &lt;/a&gt; &amp;middot; \\n    &lt;a href=\\&quot;/s/Sonoma--CA\\&quot;&gt;\\n      Sonoma\\n    &lt;/a&gt;\\n&lt;/span&gt;\\n\\n    &lt;div class=\\&quot;breadcrumbs row-space-top-1\\&quot; itemprop=\\&quot;breadcrumb\\&quot;&gt;\\n        &lt;span itemscope itemtype=\\&quot;http://data-vocabulary.org/Breadcrumb\\&quot;&gt;\\n          &lt;a href=\\&quot;/s/United-States\\&quot; itemprop=\\&quot;url\\&quot;&gt;\\n            &lt;span itemprop=\\&quot;title\\&quot;&gt;United States&lt;/span&gt;\\n          &lt;/a&gt;\\n          &lt;i class=\\&quot;icon icon-chevron-right breadcrumb-spacer\\&quot;&gt;&lt;/i&gt;\\n        &lt;/span&gt;\\n        &lt;span itemscope itemtype=\\&quot;http://data-vocabulary.org/Breadcrumb\\&quot;&gt;\\n          &lt;a href=\\&quot;/s/California--United-States\\&quot; itemprop=\\&quot;url\\&quot;&gt;\\n            &lt;span itemprop=\\&quot;title\\&quot;&gt;California&lt;/span&gt;\\n          &lt;/a&gt;\\n          &lt;i class=\\&quot;icon icon-chevron-right breadcrumb-spacer\\&quot;&gt;&lt;/i&gt;\\n        &lt;/span&gt;\\n          &lt;a href=\\&quot;/getaways/San-Francisco\\&quot;&gt;\\n            &lt;span&gt;San Francisco&lt;/span&gt;\\n          &lt;/a&gt;\\n    &lt;/div&gt;\\n  &lt;/div&gt;\\n\\n&lt;/div&gt;\\n&quot;,&quot;page&quot;:1,&quot;p2_ib_filter_on_last_minute_default&quot;:false}">\n  <div class="sidebar">\n      <div class="alert alert-block hide-sm" id="tour-alert">\n        <a href="#" class="alert-close close"></a>\n        <div>\n          <h4 id="tour-alert-title"></h4>\n          <h6 id="tour-alert-text"></h6>\n          <div id="city-name" class="hide" data-value="San Francisco"></div>\n        </div>\n      </div>\n      \n      <div id="tour-step-container" class="hide hide-sm">\n        <div class="panel panel-quote panel-quote-right row-space-4">\n          <a href="#" id="step-close" class="icon icon-size-1 icon-remove"></a>\n          <div class="panel-body" id="step-panel">\n            <div class="tour-step">\n              <h5 id="step-title"></h5>\n              <p id="step-text"></p>\n            </div>\n          </div>\n        </div>\n        <div id="tour-step-footer" class="clearfix">\n          <div id="tour-step-footer-nav">\n          </div>\n          <div id="tour-step-footer-next">\n            <a href="#" id="next-step"></a>\n          </div>\n        </div>\n      </div>\n    <div class="filters collapse">\n    \n      <div class="panel-header filters-section show-sm">\n        Filters\n      </div>\n    \n        <div class="filters-section intro-filter panel-body panel-light">\n    <div class="row">\n      <div class="col-lg-2 col-md-12 text-center-sm text-center-md row-space-sm-1 filter-label">\n        <label>Dates</label>\n      </div>\n\n      <form class="col-lg-9 trip-form">\n        <div class="row row-condensed">\n          <div class="col-md-4 col-sm-6 row-space-1-sm">\n            <label for="map-search-checkin" class="screen-reader-only">\n              Check In\n            </label>\n            <input name="checkin"\n                   id="map-search-checkin"\n                   type="text"\n                   class="checkin tour-target"\n                   placeholder="Check In">\n          </div>\n\n          <div class="col-md-4 col-sm-6 row-space-1-sm">\n            <label for="map-search-checkout" class="screen-reader-only">\n              Check Out\n            </label>\n            <input name="checkout"\n                   id="map-search-checkout"\n                   type="text"\n                   class="checkout tour-target"\n                   placeholder="Check Out">\n          </div>\n\n          <div class="col-md-4 col-sm-12">\n            <div class="select select-block">\n              <label for="guest-select" class="screen-reader-only">\n                Number of guests\n              </label>\n              <select name="guests"\n                      class="guest-select"\n                      id="guest-select"\n                      data-prefill="2">\n                <option value="1">1 Guest</option>\n<option value="2">2 Guests</option>\n<option value="3">3 Guests</option>\n<option value="4">4 Guests</option>\n<option value="5">5 Guests</option>\n<option value="6">6 Guests</option>\n<option value="7">7 Guests</option>\n<option value="8">8 Guests</option>\n<option value="9">9 Guests</option>\n<option value="10">10 Guests</option>\n<option value="11">11 Guests</option>\n<option value="12">12 Guests</option>\n<option value="13">13 Guests</option>\n<option value="14">14 Guests</option>\n<option value="15">15 Guests</option>\n<option value="16">16+ Guests</option>\n              </select>\n            </div>\n          </div>\n        </div>\n\n        <div class="simple-dates-message-container hide">\n          <div class="text-kazan space-top-2">\n            <strong>\n              <i class="icon icon-currency-cad"></i>\n              Enter dates for accurate prices and availability.\n            </strong>\n          </div>\n        </div>\n      </form>\n    </div>\n  </div>\n\n  <div class="filters-section room-type-group intro-filter panel-body panel-light">\n    <div class="row">\n      <div class="col-lg-2 col-md-12 text-center-sm text-center-md filter-label">\n        <label>\n          Room Type\n          <i class="icon icon-question hide-sm hide-md" id="room-type-tooltip"></i>\n        </label>\n\n        <div class="tooltip tooltip-left-middle show-lg" role="tooltip" data-trigger="#room-type-tooltip"\n             data-sticky="true">\n          <dl class="panel-body">\n            <dt>Entire Place</dt>\n            <dd>Listings where you have the whole place to yourself.</dd>\n            <dt>Private Room</dt>\n            <dd>Listings where you have your own room but share some common spaces.</dd>\n            <dt>Shared Room</dt>\n            <dd>Listings where you\'ll share your room or your room may be a common space.</dd>\n          </dl>\n        </div>\n      </div>\n\n      <div class="col-lg-9">\n        <div class="row row-condensed" id="room-options">\n\n          <div class="col-middle-alt col-sm-4">\n            <label class="checkbox panel panel-dark">\n              <input class="pull-right" type="checkbox" name="room-type" value="Entire home/apt">\n              <i class="icon icon-entire-place h5 needsclick"></i>\n              Entire Place\n            </label>\n          </div>\n\n          <div class="col-middle-alt col-sm-4">\n            <label class="checkbox panel panel-dark">\n              <input class="pull-right" type="checkbox" name="room-type" value="Private room">\n              <i class="icon icon-private-room h5 needsclick"></i>\n              Private Room\n            </label>\n          </div>\n\n          <div class="col-middle-alt col-sm-4">\n            <label class="checkbox panel panel-dark">\n              <input class="pull-right" type="checkbox" name="room-type" value="Shared room">\n              <i class="icon icon-shared-room h5 needsclick"></i>\n              Shared Room\n            </label>\n          </div>\n\n        </div>\n      </div>\n    </div>\n  </div>\n\n  <div class="filters-section intro-filter panel-body panel-light">\n    <div class="row">\n      <div class="col-lg-2 col-md-12 text-center-sm text-center-md filter-label">\n        <label>Price Range</label>\n      </div>\n      <div class="col-lg-9 col-md-12">\n        <div class="price-range-slider"\n             data-avg-price="4793"\n             data-currency-symbol-left="$"\n             data-currency-symbol-right="CAD"\n             data-histogram-data="[0, 0, 0, 0, 0, 0, 0, 0, 0, 0, 0, 0, 0, 1, 0, 0, 0, 2, 0, 3, 3, 10, 15, 24, 37, 50, 57, 107, 130, 115, 150, 106, 113, 117, 123, 107, 104, 82, 93, 81, 79, 40, 24, 42, 24, 19, 13, 11, 9, 47]"\n             data-min-price-daily="12"\n             data-max-price-daily="1000"\n             data-min-price-monthly="180"\n             data-max-price-monthly="20000">\n\n          <div class="ui-slider">\n            <div class="row-space-2 progress"></div>\n            <div class="row">\n              <div class="col-6">\n                $<span class="price"></span>CAD\n              </div>\n              <div class="col-6 text-right">\n                $<span class="price"></span>CAD\n              </div>\n            </div>\n          </div>\n\n        </div>\n      </div>\n    </div>\n  </div>\n\n  <div class="filters-section size-group panel-body panel-light">\n    <div class="row">\n      <div class="col-lg-2 col-md-12 text-center-sm text-center-md filter-label">\n        <label>Size</label>\n      </div>\n\n      <form class="col-lg-9">\n        <div class="row row-condensed">\n          <div class="col-md-4 col-sm-12 row-space-1">\n            <div class="select select-block">\n              <label for="map-search-min-bedrooms" class="screen-reader-only">\n                Minimum number of bedrooms\n              </label>\n              <select name="min_bedrooms" class="min-bedrooms" id="map-search-min-bedrooms">\n                <option value="-1">Bedrooms</option>\n                <option value="1">1 Bedroom</option>\n<option value="2">2 Bedrooms</option>\n<option value="3">3 Bedrooms</option>\n<option value="4">4 Bedrooms</option>\n<option value="5">5 Bedrooms</option>\n<option value="6">6 Bedrooms</option>\n<option value="7">7 Bedrooms</option>\n<option value="8">8 Bedrooms</option>\n<option value="9">9 Bedrooms</option>\n<option value="10">10 Bedrooms</option>\n              </select>\n            </div>\n          </div>\n\n          <div class="col-md-4 col-sm-12 row-space-1">\n            <div class="select select-block">\n              <label for="map-search-min-bathrooms" class="screen-reader-only">\n                Minimum number of washrooms\n              </label>\n              <select name="min_bathrooms"\n                      class="min-bathrooms input-medium"\n                      id="map-search-min-bathrooms">\n                <option value="-1">Washrooms</option>\n                <option value="0.0">0 Washrooms</option>\n<option value="0.5">0.5 Washrooms</option>\n<option value="1.0">1 Bathroom</option>\n<option value="1.5">1.5 Washrooms</option>\n<option value="2.0">2 Washrooms</option>\n<option value="2.5">2.5 Washrooms</option>\n<option value="3.0">3 Washrooms</option>\n<option value="3.5">3.5 Washrooms</option>\n<option value="4.0">4 Washrooms</option>\n<option value="4.5">4.5 Washrooms</option>\n<option value="5.0">5 Washrooms</option>\n<option value="5.5">5.5 Washrooms</option>\n<option value="6.0">6 Washrooms</option>\n<option value="6.5">6.5 Washrooms</option>\n<option value="7.0">7 Washrooms</option>\n<option value="7.5">7.5 Washrooms</option>\n<option value="8">8+ Washrooms</option>\n              </select>\n            </div>\n          </div>\n\n          <div class="col-md-4 col-sm-12">\n            <div class="select select-block">\n              <label for="map-search-min-beds" class="screen-reader-only">\n                Minimum number of beds\n              </label>\n              <select name="min_beds" class="min-beds input-medium" id="map-search-min-beds">\n                <option value="-1">Beds</option>\n                <option value="1">1 Bed</option>\n<option value="2">2 Beds</option>\n<option value="3">3 Beds</option>\n<option value="4">4 Beds</option>\n<option value="5">5 Beds</option>\n<option value="6">6 Beds</option>\n<option value="7">7 Beds</option>\n<option value="8">8 Beds</option>\n<option value="9">9 Beds</option>\n<option value="10">10 Beds</option>\n<option value="11">11 Beds</option>\n<option value="12">12 Beds</option>\n<option value="13">13 Beds</option>\n<option value="14">14 Beds</option>\n<option value="15">15 Beds</option>\n<option value="16">16+ Beds</option>\n              </select>\n            </div>\n          </div>\n        </div>\n      </form>\n    </div>\n  </div>\n\n\n\n\n  <div class="checkbox-group neighborhoods filters-section panel-body panel-light"\n       data-name="neighborhoods">\n    <div class="row">\n      <div class="col-lg-2 col-md-12 filter-label">\n        <label>Neighbourhoods</label>\n      </div>\n\n      <div class="col-lg-9 col-md-11">\n        <div class="row row-condensed filters-columns">\n        </div>\n\n        <div class="filters-more collapse">\n          <hr>\n          <div class="row row-condensed filters-columns">\n          </div>\n        </div>\n      </div>\n\n      <div class="col-md-1">\n        <label class="show-more">\n          <span>\n            <i class="icon icon-caret-down hide-sm"></i>\n            <strong class="text-muted show-sm">+ More</strong>\n          </span>\n          <span class="hide"><i class="icon icon-caret-up"></i></span>\n        </label>\n      </div>\n    </div>\n  </div>\n\n  <div class="checkbox-group hosting_amenities filters-section panel-body panel-light"\n       data-name="hosting_amenities">\n    <div class="row">\n      <div class="col-lg-2 col-md-12 filter-label">\n        <label>Amenities</label>\n      </div>\n\n      <div class="col-lg-9 col-md-11">\n        <div class="row row-condensed filters-columns">\n          <div class="col-md-4">\n            <label class="media checkbox text-truncate" title="Wireless Internet">\n              <input type="checkbox" name="amenities" value="4" class="pull-left">\n              Wireless Internet\n            </label>\n          </div>\n          <div class="col-md-4">\n            <label class="media checkbox text-truncate" title="TV">\n              <input type="checkbox" name="amenities" value="1" class="pull-left">\n              TV\n            </label>\n          </div>\n          <div class="col-md-4">\n            <label class="media checkbox text-truncate" title="Kitchen">\n              <input type="checkbox" name="amenities" value="8" class="pull-left">\n              Kitchen\n            </label>\n          </div>\n        </div>\n\n        <div class="filters-more collapse">\n          <hr>\n          <div class="row row-condensed filters-columns">\n            <div class="col-md-4">\n              <label class="media checkbox text-truncate" title="Air Conditioning">\n                <input type="checkbox" name="amenities" value="5" class="pull-left">\n                Air Conditioning\n              </label>\n            </div>\n            <div class="col-md-4">\n              <label class="media checkbox text-truncate" title="Breakfast">\n                <input type="checkbox" name="amenities" value="16" class="pull-left">\n                Breakfast\n              </label>\n            </div>\n            <div class="col-md-4">\n              <label class="media checkbox text-truncate" title="Buzzer/Wireless Intercom">\n                <input type="checkbox" name="amenities" value="28" class="pull-left">\n                Buzzer/Wireless Intercom\n              </label>\n            </div>\n            <div class="col-md-4">\n              <label class="media checkbox text-truncate" title="Cable TV">\n                <input type="checkbox" name="amenities" value="2" class="pull-left">\n                Cable TV\n              </label>\n            </div>\n            <div class="col-md-4">\n              <label class="media checkbox text-truncate" title="Carbon Monoxide Detector">\n                <input type="checkbox" name="amenities" value="36" class="pull-left">\n                Carbon Monoxide Detector\n              </label>\n            </div>\n            <div class="col-md-4">\n              <label class="media checkbox text-truncate" title="Doorman">\n                <input type="checkbox" name="amenities" value="14" class="pull-left">\n                Doorman\n              </label>\n            </div>\n            <div class="col-md-4">\n              <label class="media checkbox text-truncate" title="Dryer">\n                <input type="checkbox" name="amenities" value="34" class="pull-left">\n                Dryer\n              </label>\n            </div>\n            <div class="col-md-4">\n              <label class="media checkbox text-truncate" title="Elevator in Building">\n                <input type="checkbox" name="amenities" value="21" class="pull-left">\n                Elevator in Building\n              </label>\n            </div>\n            <div class="col-md-4">\n              <label class="media checkbox text-truncate" title="Essentials">\n                <input type="checkbox" name="amenities" value="40" class="pull-left">\n                Essentials\n              </label>\n            </div>\n            <div class="col-md-4">\n              <label class="media checkbox text-truncate" title="Family/Kid Friendly">\n                <input type="checkbox" name="amenities" value="31" class="pull-left">\n                Family/Kid Friendly\n              </label>\n            </div>\n            <div class="col-md-4">\n              <label class="media checkbox text-truncate" title="Fire Extinguisher">\n                <input type="checkbox" name="amenities" value="39" class="pull-left">\n                Fire Extinguisher\n              </label>\n            </div>\n            <div class="col-md-4">\n              <label class="media checkbox text-truncate" title="First Aid Kit">\n                <input type="checkbox" name="amenities" value="37" class="pull-left">\n                First Aid Kit\n              </label>\n            </div>\n            <div class="col-md-4">\n              <label class="media checkbox text-truncate" title="Free Parking on Premises">\n                <input type="checkbox" name="amenities" value="9" class="pull-left">\n                Free Parking on Premises\n              </label>\n            </div>\n            <div class="col-md-4">\n              <label class="media checkbox text-truncate" title="Gym">\n                <input type="checkbox" name="amenities" value="15" class="pull-left">\n                Gym\n              </label>\n            </div>\n            <div class="col-md-4">\n              <label class="media checkbox text-truncate" title="Heating">\n                <input type="checkbox" name="amenities" value="30" class="pull-left">\n                Heating\n              </label>\n            </div>\n            <div class="col-md-4">\n              <label class="media checkbox text-truncate" title="Hot Tub">\n                <input type="checkbox" name="amenities" value="25" class="pull-left">\n                Hot Tub\n              </label>\n            </div>\n            <div class="col-md-4">\n              <label class="media checkbox text-truncate" title="Indoor Fireplace">\n                <input type="checkbox" name="amenities" value="27" class="pull-left">\n                Indoor Fireplace\n              </label>\n            </div>\n            <div class="col-md-4">\n              <label class="media checkbox text-truncate" title="Internet">\n                <input type="checkbox" name="amenities" value="3" class="pull-left">\n                Internet\n              </label>\n            </div>\n            <div class="col-md-4">\n              <label class="media checkbox text-truncate" title="Pets Allowed">\n                <input type="checkbox" name="amenities" value="12" class="pull-left">\n                Pets Allowed\n              </label>\n            </div>\n            <div class="col-md-4">\n              <label class="media checkbox text-truncate" title="Pool">\n                <input type="checkbox" name="amenities" value="7" class="pull-left">\n                Pool\n              </label>\n            </div>\n            <div class="col-md-4">\n              <label class="media checkbox text-truncate" title="Safety Card">\n                <input type="checkbox" name="amenities" value="38" class="pull-left">\n                Safety Card\n              </label>\n            </div>\n            <div class="col-md-4">\n              <label class="media checkbox text-truncate" title="Shampoo">\n                <input type="checkbox" name="amenities" value="41" class="pull-left">\n                Shampoo\n              </label>\n            </div>\n            <div class="col-md-4">\n              <label class="media checkbox text-truncate" title="Smoke Detector">\n                <input type="checkbox" name="amenities" value="35" class="pull-left">\n                Smoke Detector\n              </label>\n            </div>\n            <div class="col-md-4">\n              <label class="media checkbox text-truncate" title="Smoking Allowed">\n                <input type="checkbox" name="amenities" value="11" class="pull-left">\n                Smoking Allowed\n              </label>\n            </div>\n            <div class="col-md-4">\n              <label class="media checkbox text-truncate" title="Suitable for Events">\n                <input type="checkbox" name="amenities" value="32" class="pull-left">\n                Suitable for Events\n              </label>\n            </div>\n            <div class="col-md-4">\n              <label class="media checkbox text-truncate" title="Washer">\n                <input type="checkbox" name="amenities" value="33" class="pull-left">\n                Washer\n              </label>\n            </div>\n            <div class="col-md-4">\n              <label class="media checkbox text-truncate" title="Wheelchair Accessible">\n                <input type="checkbox" name="amenities" value="6" class="pull-left">\n                Wheelchair Accessible\n              </label>\n            </div>\n          </div>\n        </div>\n      </div>\n\n      <div class="col-md-1">\n        <label class="show-more">\n          <span>\n            <i class="icon icon-caret-down hide-sm"></i>\n            <strong class="text-muted show-sm">+ More</strong>\n          </span>\n          <span class="hide"><i class="icon icon-caret-up"></i></span>\n        </label>\n      </div>\n    </div>\n  </div>\n\n  <div class="checkbox-group property_type_id filters-section panel-body panel-light"\n       data-name="property_type_id">\n    <div class="row">\n      <div class="col-lg-2 col-md-12 filter-label">\n        <label>Property Type</label>\n      </div>\n\n      <div class="col-lg-9 col-md-11">\n        <div class="row row-condensed filters-columns">\n          <div class="col-md-4">\n            <label class="media checkbox text-truncate" title="Apartment">\n              <input type="checkbox" name="property_type_id" value="1" class="pull-left">\n              Apartment\n            </label>\n          </div>\n          <div class="col-md-4">\n            <label class="media checkbox text-truncate" title="House">\n              <input type="checkbox" name="property_type_id" value="2" class="pull-left">\n              House\n            </label>\n          </div>\n          <div class="col-md-4">\n            <label class="media checkbox text-truncate" title="Bed &amp; Breakfast">\n              <input type="checkbox" name="property_type_id" value="3" class="pull-left">\n              Bed &amp; Breakfast\n            </label>\n          </div>\n        </div>\n\n        <div class="filters-more collapse">\n          <hr>\n          <div class="row row-condensed filters-columns">\n            <div class="col-md-4">\n              <label class="media checkbox text-truncate" title="Boat">\n                <input type="checkbox" name="property_type_id" value="8" class="pull-left">\n                Boat\n              </label>\n            </div>\n            <div class="col-md-4">\n              <label class="media checkbox text-truncate" title="Bungalow">\n                <input type="checkbox" name="property_type_id" value="38" class="pull-left">\n                Bungalow\n              </label>\n            </div>\n            <div class="col-md-4">\n              <label class="media checkbox text-truncate" title="Camper/RV">\n                <input type="checkbox" name="property_type_id" value="32" class="pull-left">\n                Camper/RV\n              </label>\n            </div>\n            <div class="col-md-4">\n              <label class="media checkbox text-truncate" title="Castle">\n                <input type="checkbox" name="property_type_id" value="5" class="pull-left">\n                Castle\n              </label>\n            </div>\n            <div class="col-md-4">\n              <label class="media checkbox text-truncate" title="Chalet">\n                <input type="checkbox" name="property_type_id" value="22" class="pull-left">\n                Chalet\n              </label>\n            </div>\n            <div class="col-md-4">\n              <label class="media checkbox text-truncate" title="Condominium">\n                <input type="checkbox" name="property_type_id" value="37" class="pull-left">\n                Condominium\n              </label>\n            </div>\n            <div class="col-md-4">\n              <label class="media checkbox text-truncate" title="Cottage">\n                <input type="checkbox" name="property_type_id" value="4" class="pull-left">\n                Cottage\n              </label>\n            </div>\n            <div class="col-md-4">\n              <label class="media checkbox text-truncate" title="Dorm">\n                <input type="checkbox" name="property_type_id" value="9" class="pull-left">\n                Dorm\n              </label>\n            </div>\n            <div class="col-md-4">\n              <label class="media checkbox text-truncate" title="Island">\n                <input type="checkbox" name="property_type_id" value="19" class="pull-left">\n                Island\n              </label>\n            </div>\n            <div class="col-md-4">\n              <label class="media checkbox text-truncate" title="Lighthouse">\n                <input type="checkbox" name="property_type_id" value="10" class="pull-left">\n                Lighthouse\n              </label>\n            </div>\n            <div class="col-md-4">\n              <label class="media checkbox text-truncate" title="Loft">\n                <input type="checkbox" name="property_type_id" value="35" class="pull-left">\n                Loft\n              </label>\n            </div>\n            <div class="col-md-4">\n              <label class="media checkbox text-truncate" title="Other">\n                <input type="checkbox" name="property_type_id" value="33" class="pull-left">\n                Other\n              </label>\n            </div>\n            <div class="col-md-4">\n              <label class="media checkbox text-truncate" title="Tent">\n                <input type="checkbox" name="property_type_id" value="34" class="pull-left">\n                Tent\n              </label>\n            </div>\n            <div class="col-md-4">\n              <label class="media checkbox text-truncate" title="Tipi">\n                <input type="checkbox" name="property_type_id" value="16" class="pull-left">\n                Tipi\n              </label>\n            </div>\n            <div class="col-md-4">\n              <label class="media checkbox text-truncate" title="Townhouse">\n                <input type="checkbox" name="property_type_id" value="36" class="pull-left">\n                Townhouse\n              </label>\n            </div>\n            <div class="col-md-4">\n              <label class="media checkbox text-truncate" title="Treehouse">\n                <input type="checkbox" name="property_type_id" value="6" class="pull-left">\n                Treehouse\n              </label>\n            </div>\n            <div class="col-md-4">\n              <label class="media checkbox text-truncate" title="Villa">\n                <input type="checkbox" name="property_type_id" value="11" class="pull-left">\n                Villa\n              </label>\n            </div>\n            <div class="col-md-4">\n              <label class="media checkbox text-truncate" title="Yurt">\n                <input type="checkbox" name="property_type_id" value="15" class="pull-left">\n                Yurt\n              </label>\n            </div>\n          </div>\n        </div>\n      </div>\n\n      <div class="col-md-1">\n        <label class="show-more">\n          <span>\n            <i class="icon icon-caret-down hide-sm"></i>\n            <strong class="text-muted show-sm">+ More</strong>\n          </span>\n          <span class="hide"><i class="icon icon-caret-up"></i></span>\n        </label>\n      </div>\n    </div>\n\n  </div>\n\n    <div class="checkbox-group languages filters-section panel-body panel-light"\n         data-name="languages">\n      <div class="row">\n        <div class="col-lg-2 col-md-12 filter-label">\n          <label>Host Language</label>\n        </div>\n\n        <div class="col-lg-9 col-md-11">\n          <div class="row row-condensed filters-columns">\n            <div class="col-md-4">\n              <label class="media checkbox text-truncate" title="English">\n                <input type="checkbox" name="languages" value="1" class="pull-left">\n                English\n              </label>\n            </div>\n            <div class="col-md-4">\n              <label class="media checkbox text-truncate" title="Espa\xc3\xb1ol">\n                <input type="checkbox" name="languages" value="64" class="pull-left">\n                Espa\xc3\xb1ol\n              </label>\n            </div>\n            <div class="col-md-4">\n              <label class="media checkbox text-truncate" title="Fran\xc3\xa7ais">\n                <input type="checkbox" name="languages" value="2" class="pull-left">\n                Fran\xc3\xa7ais\n              </label>\n            </div>\n          </div>\n\n          <div class="filters-more collapse">\n            <hr>\n            <div class="row row-condensed filters-columns">\n              <div class="col-md-4">\n                <label class="media checkbox text-truncate" title="Bahasa Indonesia">\n                  <input type="checkbox" name="languages" value="4096" class="pull-left">\n                  Bahasa Indonesia\n                </label>\n              </div>\n              <div class="col-md-4">\n                <label class="media checkbox text-truncate" title="Bahasa Malaysia">\n                  <input type="checkbox" name="languages" value="4194304" class="pull-left">\n                  Bahasa Malaysia\n                </label>\n              </div>\n              <div class="col-md-4">\n                <label class="media checkbox text-truncate" title="Bengali">\n                  <input type="checkbox" name="languages" value="32768" class="pull-left">\n                  Bengali\n                </label>\n              </div>\n              <div class="col-md-4">\n                <label class="media checkbox text-truncate" title="Dansk">\n                  <input type="checkbox" name="languages" value="16777216" class="pull-left">\n                  Dansk\n                </label>\n              </div>\n              <div class="col-md-4">\n                <label class="media checkbox text-truncate" title="Deutsch">\n                  <input type="checkbox" name="languages" value="4" class="pull-left">\n                  Deutsch\n                </label>\n              </div>\n              <div class="col-md-4">\n                <label class="media checkbox text-truncate" title="Hindi">\n                  <input type="checkbox" name="languages" value="512" class="pull-left">\n                  Hindi\n                </label>\n              </div>\n              <div class="col-md-4">\n                <label class="media checkbox text-truncate" title="Italiano">\n                  <input type="checkbox" name="languages" value="16" class="pull-left">\n                  Italiano\n                </label>\n              </div>\n              <div class="col-md-4">\n                <label class="media checkbox text-truncate" title="Magyar">\n                  <input type="checkbox" name="languages" value="536870912" class="pull-left">\n                  Magyar\n                </label>\n              </div>\n              <div class="col-md-4">\n                <label class="media checkbox text-truncate" title="Nederlands">\n                  <input type="checkbox" name="languages" value="8192" class="pull-left">\n                  Nederlands\n                </label>\n              </div>\n              <div class="col-md-4">\n                <label class="media checkbox text-truncate" title="Norsk">\n                  <input type="checkbox" name="languages" value="67108864" class="pull-left">\n                  Norsk\n                </label>\n              </div>\n              <div class="col-md-4">\n                <label class="media checkbox text-truncate" title="Polski">\n                  <input type="checkbox" name="languages" value="2097152" class="pull-left">\n                  Polski\n                </label>\n              </div>\n              <div class="col-md-4">\n                <label class="media checkbox text-truncate" title="Portugu\xc3\xaas">\n                  <input type="checkbox" name="languages" value="1024" class="pull-left">\n                  Portugu\xc3\xaas\n                </label>\n              </div>\n              <div class="col-md-4">\n                <label class="media checkbox text-truncate" title="Punjabi">\n                  <input type="checkbox" name="languages" value="131072" class="pull-left">\n                  Punjabi\n                </label>\n              </div>\n              <div class="col-md-4">\n                <label class="media checkbox text-truncate" title="Sign Language">\n                  <input type="checkbox" name="languages" value="524288" class="pull-left">\n                  Sign Language\n                </label>\n              </div>\n              <div class="col-md-4">\n                <label class="media checkbox text-truncate" title="Suomi">\n                  <input type="checkbox" name="languages" value="134217728" class="pull-left">\n                  Suomi\n                </label>\n              </div>\n              <div class="col-md-4">\n                <label class="media checkbox text-truncate" title="Svenska">\n                  <input type="checkbox" name="languages" value="33554432" class="pull-left">\n                  Svenska\n                </label>\n              </div>\n              <div class="col-md-4">\n                <label class="media checkbox text-truncate" title="Tagalog">\n                  <input type="checkbox" name="languages" value="8388608" class="pull-left">\n                  Tagalog\n                </label>\n              </div>\n              <div class="col-md-4">\n                <label class="media checkbox text-truncate" title="T\xc3\xbcrk\xc3\xa7e">\n                  <input type="checkbox" name="languages" value="2048" class="pull-left">\n                  T\xc3\xbcrk\xc3\xa7e\n                </label>\n              </div>\n              <div class="col-md-4">\n                <label class="media checkbox text-truncate" title="\xc4\x8ce\xc5\xa1tina">\n                  <input type="checkbox" name="languages" value="268435456" class="pull-left">\n                  \xc4\x8ce\xc5\xa1tina\n                </label>\n              </div>\n              <div class="col-md-4">\n                <label class="media checkbox text-truncate" title="\xce\x95\xce\xbb\xce\xbb\xce\xb7\xce\xbd\xce\xb9\xce\xba\xce\xac">\n                  <input type="checkbox" name="languages" value="262144" class="pull-left">\n                  \xce\x95\xce\xbb\xce\xbb\xce\xb7\xce\xbd\xce\xb9\xce\xba\xce\xac\n                </label>\n              </div>\n              <div class="col-md-4">\n                <label class="media checkbox text-truncate" title="\xd0\xa0\xd1\x83\xd1\x81\xd1\x81\xd0\xba\xd0\xb8\xd0\xb9">\n                  <input type="checkbox" name="languages" value="32" class="pull-left">\n                  \xd0\xa0\xd1\x83\xd1\x81\xd1\x81\xd0\xba\xd0\xb8\xd0\xb9\n                </label>\n              </div>\n              <div class="col-md-4">\n                <label class="media checkbox text-truncate" title="\xd1\x83\xd0\xba\xd1\x80\xd0\xb0\xd1\x97\xd0\xbd\xd1\x81\xd1\x8c\xd0\xba\xd0\xb0">\n                  <input type="checkbox" name="languages" value="1073741824" class="pull-left">\n                  \xd1\x83\xd0\xba\xd1\x80\xd0\xb0\xd1\x97\xd0\xbd\xd1\x81\xd1\x8c\xd0\xba\xd0\xb0\n                </label>\n              </div>\n              <div class="col-md-4">\n                <label class="media checkbox text-truncate" title="\xd7\xa2\xd7\x91\xd7\xa8\xd7\x99\xd7\xaa">\n                  <input type="checkbox" name="languages" value="1048576" class="pull-left">\n                  \xd7\xa2\xd7\x91\xd7\xa8\xd7\x99\xd7\xaa\n                </label>\n              </div>\n              <div class="col-md-4">\n                <label class="media checkbox text-truncate" title="\xd8\xa7\xd9\x84\xd8\xb9\xd8\xb1\xd8\xa8\xd9\x8a\xd8\xa9">\n                  <input type="checkbox" name="languages" value="256" class="pull-left">\n                  \xd8\xa7\xd9\x84\xd8\xb9\xd8\xb1\xd8\xa8\xd9\x8a\xd8\xa9\n                </label>\n              </div>\n              <div class="col-md-4">\n                <label class="media checkbox text-truncate" title="\xe0\xb8\xa0\xe0\xb8\xb2\xe0\xb8\xa9\xe0\xb8\xb2\xe0\xb9\x84\xe0\xb8\x97\xe0\xb8\xa2">\n                  <input type="checkbox" name="languages" value="65536" class="pull-left">\n                  \xe0\xb8\xa0\xe0\xb8\xb2\xe0\xb8\xa9\xe0\xb8\xb2\xe0\xb9\x84\xe0\xb8\x97\xe0\xb8\xa2\n                </label>\n              </div>\n              <div class="col-md-4">\n                <label class="media checkbox text-truncate" title="\xe4\xb8\xad\xe6\x96\x87">\n                  <input type="checkbox" name="languages" value="128" class="pull-left">\n                  \xe4\xb8\xad\xe6\x96\x87\n                </label>\n              </div>\n              <div class="col-md-4">\n                <label class="media checkbox text-truncate" title="\xe6\x97\xa5\xe6\x9c\xac\xe8\xaa\x9e">\n                  <input type="checkbox" name="languages" value="8" class="pull-left">\n                  \xe6\x97\xa5\xe6\x9c\xac\xe8\xaa\x9e\n                </label>\n              </div>\n              <div class="col-md-4">\n                <label class="media checkbox text-truncate" title="\xed\x95\x9c\xea\xb5\xad\xec\x96\xb4">\n                  <input type="checkbox" name="languages" value="16384" class="pull-left">\n                  \xed\x95\x9c\xea\xb5\xad\xec\x96\xb4\n                </label>\n              </div>\n            </div>\n          </div>\n        </div>\n\n        <div class="col-md-1">\n          <label class="show-more">\n            <span>\n              <i class="icon icon-caret-down hide-sm"></i>\n              <strong class="text-muted show-sm">+ More</strong>\n            </span>\n            <span class="hide"><i class="icon icon-caret-up"></i></span>\n          </label>\n        </div>\n      </div>\n    </div>\n\n\n  <div class="panel-body panel-light show-sm">\n    <div class="sticky-apply-filters-placeholder"></div>\n  </div>\n\n    \n      <div class="panel-light panel-btn-sm filters-footer filters-footer-sm">\n        <div class="row row-condensed">\n          <div class="col-md-8 col-lg-7 col-md-offset-4 col-lg-offset-5">\n            <div class="row row-condensed space-sm-7">\n              <div class="col-sm-6">\n                <button class="btn btn-block cancel-btn">Cancel</button>\n              </div>\n              <div class="col-sm-6">\n                <button class="btn btn-block btn-primary apply-filters-btn" disabled>\n                  Apply Filters\n                </button>\n              </div>\n            </div>\n          </div>\n        </div>\n      </div>\n    </div>\n    <div class="filters-placeholder hide hide-sm"></div>\n    <a id="docked-filters"></a>\n    <div class="sidebar-header panel-body hide-sm clearfix panel-bg-medium">\n      <button class="btn show-filters pull-left">\n        <span class="text-more-filters">More Filters</span>\n        <span class="text-filters">Filters</span>\n      </button>\n    \n      <ul class="applied-filters list-unstyled">\n        <li class="hide btn search-tag" data-applied-filter="room_types">\n          Room Type <i class="icon icon-remove search-tag-remove"></i>\n        </li>\n        <li class="hide btn search-tag" data-applied-filter="price">\n          Price <i class="icon icon-remove search-tag-remove"></i>\n        </li>\n        <li class="hide btn search-tag" data-applied-filter="size">\n          Size <i class="icon icon-remove search-tag-remove"></i>\n        </li>\n        <li class="hide btn search-tag" data-applied-filter="connected">\n          Social Connections <i class="icon icon-remove\n            search-tag-remove"></i>\n        </li>\n        <li class="hide btn search-tag" data-applied-filter="empHost">\n          Employee Host <i class="icon icon-remove search-tag-remove"></i>\n        </li>\n        <li class="hide btn search-tag" data-applied-filter="ib">\n          Instant Book <i class="icon icon-remove search-tag-remove"></i>\n        </li>\n        <li class="hide btn search-tag" data-applied-filter="superhost">\n          Superhost <i class="icon icon-remove search-tag-remove"></i>\n        </li>\n        <li class="hide btn search-tag" data-applied-filter="neighborhoods">\n          Neighbourhoods <i class="icon icon-remove search-tag-remove"></i>\n        </li>\n        <li class="hide btn search-tag" data-applied-filter="hosting_amenities">\n          Amenities <i class="icon icon-remove search-tag-remove"></i>\n        </li>\n        <li class="hide btn search-tag" data-applied-filter="property_type_id">\n          Property Type <i class="icon icon-remove search-tag-remove"></i>\n        </li>\n        <li class="hide btn search-tag" data-applied-filter="languages">\n          Host Language <i class="icon icon-remove search-tag-remove"></i>\n        </li>\n        <li class="hide btn search-tag" data-applied-filter="keywords">\n          Keywords <i class="icon icon-remove search-tag-remove"></i>\n        </li>\n      </ul>\n    \n      <div class="ib-filter-tooltip tooltip tooltip-bottom-middle hide"\n           role="tooltip"\n           aria-hidden="true">\n        <div class="panel-body">\n          <a href="#" class="panel-close" data-behavior="modal-close">\n            &times;\n            <span class="screen-reader-only">\n              Close\n            </span>\n          </a>\n          Browse listings you can book immediately since you plan to arrive soon.\n        </div>\n      </div>\n    \n        <div class="show-lg crossfading-panel__container text-right pull-right">\n          <div class="crossfading-panel crossfading-panel--right crossfading-panel__vertically-centered-container" data-behavior="results_count_container">\n            <h1 class="crossfading-panel--vertically-centered h6 pull-right text-right"\n                data-behavior="results_count_text">0 Rentals &middot; San Francisco</h1>\n          </div>\n    \n          <div class="crossfading-panel crossfading-panel--right crossfading-panel--invisible pull-right" data-behavior="number-available">\n            <i class="icon pull-right crossfading-panel--margin-left icon-color-calendar"></i>\n            <div class="pull-right crossfading-panel__text--lg">\n              <strong data-behavior="crossfading-panel-header-text"></strong>\n              <div class="text-muted">We recommend booking a place soon.</div>\n            </div>\n          </div>\n    \n          <div class="crossfading-panel crossfading-panel--right crossfading-panel--invisible pull-right" data-behavior="percent-available">\n            <i class="icon pull-right crossfading-panel--margin-left icon-calendar-trend"></i>\n            <div class="pull-right crossfading-panel__text--lg">\n              <strong data-behavior="crossfading-panel-header-text"></strong>\n              <div class="text-muted">We recommend booking a place soon.</div>\n            </div>\n          </div>\n    \n          <div class="crossfading-panel crossfading-panel--right crossfading-panel--invisible pull-right" data-behavior="room-type-filter">\n            <i class="icon pull-right crossfading-panel--margin-left icon-color-house"></i>\n            <div class="pull-right crossfading-panel__text--lg">\n              <strong>There are over 1000 listings to choose from.</strong>\n              <div>Select a room type for fewer results.</div>\n            </div>\n          </div>\n    \n          <div class="crossfading-panel crossfading-panel--right crossfading-panel--invisible pull-right" data-behavior="price-filter">\n            <i class="icon pull-right crossfading-panel--margin-left icon-color-currency"></i>\n            <div class="pull-right crossfading-panel__text--lg">\n              <strong>There are over 1000 listings to choose from.</strong>\n              <div class="text-muted">Add a price range for fewer results.</div>\n            </div>\n          </div>\n    \n          <div class="crossfading-panel crossfading-panel--right crossfading-panel--invisible pull-right"\n               data-behavior="last-minute-trip">\n            <div class="last-minute-panel media-round text-center crossfading-panel--margin-left pull-right">\n              <i class="icon icon-bolt icon-beach h3"></i>\n            </div>\n            <div class="pull-left crossfading-panel__text--lg">\n              <strong data-behavior="crossfading-panel-header-text"></strong>\n              <div class="text-muted">Look for the lightning bolt for faster booking.</div>\n            </div>\n          </div>\n        </div>\n    \n        <div class="crossfading-panel__container crossfading-panel__container--md text-left pull-left show-md">\n          <div class="crossfading-panel crossfading-panel__vertically-centered-container" data-behavior="results_count_container">\n            <h1 class="crossfading-panel--margin-left crossfading-panel--vertically-centered h6 pull-left text-left" data-behavior="results_count_text">0 Rentals &middot; San Francisco</h1>\n          </div>\n    \n          <div class="crossfading-panel crossfading-panel--left crossfading-panel--invisible pull-left" data-behavior="number-available">\n            <i class="icon pull-left crossfading-panel--margin-right icon-color-calendar"></i>\n            <div class="pull-left crossfading-panel__text--md">\n              <strong data-behavior="crossfading-panel-header-text"></strong>\n              <div class="text-muted">We recommend booking a place soon.</div>\n            </div>\n          </div>\n    \n          <div class="crossfading-panel crossfading-panel--left crossfading-panel--invisible pull-left" data-behavior="percent-available">\n            <i class="icon pull-left crossfading-panel--margin-right icon-calendar-trend"></i>\n            <div class="pull-left crossfading-panel__text--md">\n              <strong data-behavior="crossfading-panel-header-text"></strong>\n              <div class="text-muted">We recommend booking a place soon.</div>\n            </div>\n          </div>\n    \n          <div class="crossfading-panel crossfading-panel--left crossfading-panel--invisible pull-left" data-behavior="room-type-filter">\n            <i class="icon pull-left crossfading-panel--margin-right icon-color-house"></i>\n            <div class="pull-left crossfading-panel__text--md">\n              <strong>There are over 1000 listings to choose from.</strong>\n              <div>Select a room type for fewer results.</div>\n            </div>\n          </div>\n    \n          <div class="crossfading-panel crossfading-panel--left crossfading-panel--invisible pull-left" data-behavior="price-filter">\n            <i class="icon pull-left crossfading-panel--margin-right icon-color-currency"></i>\n            <div class="pull-left crossfading-panel__text--md">\n              <strong>There are over 1000 listings to choose from.</strong>\n              <div class="text-muted">Add a price range for fewer results.</div>\n            </div>\n          </div>\n    \n          <div class="crossfading-panel crossfading-panel--left crossfading-panel--invisible pull-left"\n               data-behavior="last-minute-trip">\n            <div class="last-minute-panel media-round text-center pull-left crossfading-panel--margin-right">\n              <i class="icon icon-bolt icon-beach h3"></i>\n            </div>\n            <div class="pull-left crossfading-panel__text--md">\n              <strong data-behavior="crossfading-panel-header-text"></strong>\n              <div class="text-muted">Look for the lightning bolt for faster booking.</div>\n            </div>\n          </div>\n        </div>\n    \n    </div>\n    <div class="sidebar-header-placeholder"></div>\n    <div class="search-results">\n\n      <div class="alert alert-block alert-with-icon disaster-rooster hide space-4 row-space-0-sm"\n           aria-hidden="true">\n        <i class="icon icon-comment alert-icon"></i>\n        <a href="#" class="alert-close close">\n          &times;\n          <span class="screen-reader-only">\n            Close\n          </span>\n        </a>\n        <div class="h4 row-space-2">\n          Urgent Accommodations for those displaced by <span class=\'disaster-name\'></span>\n        </div>\n        <a class="btn btn-primary disaster-guest row-space-1-sm" data-url-prefix="/s?">\n          I need a place to stay\n        </a>\n        <a class="btn btn-host disaster-host row-space-1-sm" data-url-prefix="/disaster/" >\n          I can offer my space for free\n        </a>\n      </div>\n\n\n      <div class = "outer-listings-container row-space-2">\n        \n<div class="listings-container">\n    <div class="row">\n\n    </div>\n\n    <div class="col-sm-10 col-sm-offset-1 row-space-top-2-sm col-md-7 col-md-offset-0">\n      <p class="text-lead">We couldn\xe2\x80\x99t find any results that matched your criteria, but tweaking your search may help. Here are some ideas:</p>\n      <ul>\n        <li>Remove some filters.</li>\n        <li>Expand the area of your search.</li>\n        <li>Search for a city, address, or landmark.</li>\n      </ul>\n    </div>\n</div>\n\n      </div>\n\n      <div class="results-footer">\n\n  <div class="pagination-buttons-container row-space-8">\n    <div class="results_count">\n      <p>\n        \n      </p>\n    </div>\n    \n  </div>\n\n  <div class="nearby-links">\n    People also stay in <span class="text-muted">\n    <a href="/s/Oakland--CA">\n      Oakland\n    </a> &middot; \n    <a href="/s/Berkeley--CA">\n      Berkeley\n    </a> &middot; \n    <a href="/s/Santa-Cruz--CA">\n      Santa Cruz\n    </a> &middot; \n    <a href="/s/San-Jose--CA">\n      San Jose\n    </a> &middot; \n    <a href="/s/Sonoma--CA">\n      Sonoma\n    </a>\n</span>\n\n    <div class="breadcrumbs row-space-top-1" itemprop="breadcrumb">\n        <span itemscope itemtype="http://data-vocabulary.org/Breadcrumb">\n          <a href="/s/United-States" itemprop="url">\n            <span itemprop="title">United States</span>\n          </a>\n          <i class="icon icon-chevron-right breadcrumb-spacer"></i>\n        </span>\n        <span itemscope itemtype="http://data-vocabulary.org/Breadcrumb">\n          <a href="/s/California--United-States" itemprop="url">\n            <span itemprop="title">California</span>\n          </a>\n          <i class="icon icon-chevron-right breadcrumb-spacer"></i>\n        </span>\n          <a href="/getaways/San-Francisco">\n            <span>San Francisco</span>\n          </a>\n    </div>\n  </div>\n\n</div>\n\n    </div>\n\n    <div class="panel-btn-sm hide filters-btn fixed">\n      <button class="js-small-filter-toggle btn btn-large btn-block btn-primary">Filters</button>\n    </div>\n  </div>\n\n  <div class="map hide-sm">\n  \n    <div id="map" role="presentation" class="map-canvas"></div>\n  \n    <div class="map-refresh-controls Google">\n      <a class="map-manual-refresh btn btn-primary hide">\n        Redo Search Here <i class="icon icon-refresh icon-space-left"></i>\n      </a>\n      <div class="panel map-auto-refresh hide">\n        <label class="checkbox">\n          <input class="map-auto-refresh-checkbox" type="checkbox" checked="checked">\n          <small>Search as I move the map</small>\n        </label>\n      </div>\n    </div>\n  \n    <div class="map-controls"></div>\n  \n  </div>\n\n  <button class="hide-sm btn footer-toggle">\n    <span class="open-content">\n      <i class="icon icon-globe"></i> Language and Currency\n    </span>\n    <span class="close-content"><i class="icon icon-remove"></i> Close</span>\n  </button>\n</div>\n\n\n    </main>\n\n      <div id="footer" class="container-brand-dark footer-surround footer-container">\n        <footer class="page-container-responsive">\n  <div class="row row-condensed">\n\n    <div class="col-md-3 col-md-offset-1">\n      <div class="language-curr-picker clearfix">\n        <div class="language-picker"></div>\n          <div class="currency-picker"></div>\n        <div class="cx-number"></div>\n      </div>\n    </div>\n\n    <div class="col-md-2 col-md-offset-1 hide-sm">\n      <h2 class="h5">Company</h2>\n      <ul class="list-layout">\n        <li><a href="/about/about-us" class="link-contrast">About</a></li>\n        <li><a href="/careers" class="link-contrast">Careers</a></li>\n        <li><a href="/press/news" class="link-contrast">Press</a></li>\n        <li><a href="http://blog.airbnb.com" class="link-contrast">Blog</a></li>\n        <li><a href="/help" class="link-contrast">Help</a></li>\n        <li><a href="/policies" class="link-contrast">Policies</a></li>\n        <li><a href="/disaster-response" class="link-contrast">Disaster Response</a></li>\n        <li><a href="/terms" class="link-contrast">Terms & Privacy</a></li>\n      </ul>\n    </div>\n\n    <div class="col-md-2 hide-sm">\n      <h2 class="h5">Discover</h2>\n      <ul class="list-layout">\n        <li><a href="/trust" class="link-contrast">Trust & Safety</a></li>\n        <li><a href="/invite?r=6" class="link-contrast">Invite Friends</a></li>\n        <li><a href="/wishlists/airbnb_picks" class="link-contrast">Airbnb Picks</a></li>\n        <li><a href="/mobile" class="link-contrast">Mobile</a></li>\n        <li><a href="https://www.airbnbnyc.com" class="link-contrast">Support NYC</a></li>\n        <li><a href="/business-travel-management" class="link-contrast">Business Travel</a></li>\n        <li><a href="/sitemaps" class="link-contrast">Site Map</a></li>\n      </ul>\n    </div>\n\n    <div class="col-md-2 hide-sm">\n      <h2 class="h5">Hosting</h2>\n      <ul class="list-layout">\n        <li><a href="/host" class="link-contrast">Why Host</a></li>\n\n        <li><a href="/hospitality" class="link-contrast">Hospitality</a></li>\n        <li><a href="/help/responsible-hosting" class="link-contrast">Responsible Hosting</a></li>\n        <li><a href="/home-safety" class="link-contrast">Home Safety</a></li>\n      </ul>\n    </div>\n  </div>\n\n  <div class="col-sm-12 space-4 space-top-4 show-sm">\n    <ul class="list-layout list-inline text-center h5">\n      <li><a href="/about/about-us" class="link-contrast">About</a></li>\n      <li><a href="/careers" class="link-contrast">Careers</a></li>\n      <li><a href="/press/news" class="link-contrast">Press</a></li>\n      <li><a href="http://blog.airbnb.com" class="link-contrast">Blog</a></li>\n      <li><a href="/terms" class="link-contrast">Terms & Privacy</a></li>\n    </ul>\n  </div>\n\n  <hr class="footer-divider space-top-8 space-4 hide-sm">\n\n  <div class="text-center">\n    <h2 class="h5 space-4 hide-sm">Join Us On</h2>\n    <ul class="list-layout list-inline" itemscope itemtype="http://schema.org/Organization">\n      <link itemprop="url" href="https://www.airbnb.ca">\n      <meta itemprop="logo" content="https://a2.muscache.com/airbnb/static/logos/belo-200x200-4d851c5b28f61931bf1df28dd15e60ef.png">\n        <li>\n          <a href="https://www.facebook.com/airbnb" class="link-contrast footer-icon-container" itemprop="sameAs" target="_blank">\n            <span class="screen-reader-only">Facebook</span>\n            <i class=\'icon footer-icon icon-facebook\'></i>\n</a>        </li>\n        <li>\n          <a href="https://plus.google.com/+airbnb" class="link-contrast footer-icon-container" itemprop="sameAs" rel="publisher" target="_blank">\n            <span class="screen-reader-only">Google+</span>\n            <i class=\'icon footer-icon icon-google-plus\'></i>\n</a>        </li>\n\n        <li>\n          <a href="https://twitter.com/airbnb" class="link-contrast footer-icon-container" itemprop="sameAs" target="_blank">\n            <span class="screen-reader-only">Twitter</span>\n            <i class=\'icon footer-icon icon-twitter\'></i>\n</a>        </li>\n\n      <li>\n        <a href="https://www.linkedin.com/company/airbnb" class="link-contrast footer-icon-container" itemprop="sameAs" target="_blank">\n          <span class="screen-reader-only">LinkedIn</span>\n          <i class=\'icon footer-icon icon-linkedin\'></i>\n</a>      </li>\n\n        <li>\n          <a href="https://www.pinterest.com/airbnb/" class="link-contrast footer-icon-container" itemprop="sameAs" target="_blank">\n            <span class="screen-reader-only">Pinterest</span>\n            <i class=\'icon footer-icon icon-pinterest\'></i>\n</a>        </li>\n        <li>\n          <a href="http://www.youtube.com/airbnb" class="link-contrast footer-icon-container" itemprop="sameAs" target="_blank">\n            <span class="screen-reader-only">YouTube</span>\n            <i class=\'icon footer-icon icon-youtube\'></i>\n</a>        </li>\n        <li>\n          <a href="https://www.instagram.com/airbnb" class="link-contrast footer-icon-container" itemprop="sameAs" target="_blank">\n            <span class="screen-reader-only">Instagram</span>\n            <i class=\'icon footer-icon icon-instagram\'></i>\n</a>        </li>\n    </ul>\n    <div class="space-top-2 text-muted">\n      &copy; Airbnb, Inc.\n    </div>\n  </div>\n</footer>\n\n      </div>\n\n    <meta content="{&quot;priv.everyone&quot;:&quot;Everyone&quot;,&quot;priv.only_me&quot;:&quot;Only Me&quot;,&quot;priv.description&quot;:&quot;Who can see this?&quot;,&quot;priv.everyone_description&quot;:&quot;Visible to everyone and included on your public Airbnb profile.&quot;,&quot;priv.only_me_description&quot;:&quot;Visible only to you and not shared anywhere.&quot;,&quot;save_to_wish_list&quot;:&quot;Save to Wish List&quot;,&quot;save_to_wish_list_and_fb&quot;:&quot;Save to Wish List and Facebook Timeline&quot;,&quot;wl_modal.create_new&quot;:&quot;Create new&quot;,&quot;wl_modal.make_a_new&quot;:&quot;Make a new wish list...&quot;,&quot;wl_modal.create&quot;:&quot;Create&quot;,&quot;wl_modal.add_note&quot;:&quot;Add a note&quot;,&quot;wl_modal.post_to_facebook&quot;:&quot;Post to Facebook&quot;,&quot;wl_modal.done&quot;:&quot;Done&quot;,&quot;wl_modal.save&quot;:&quot;Save&quot;,&quot;refresh_list&quot;:&quot;Refresh List&quot;,&quot;where_are_you_going&quot;:&quot;Where are you going?&quot;,&quot;simple_no_dates_message&quot;:&quot;Enter dates for accurate prices and availability.&quot;,&quot;when_are_you_traveling&quot;:&quot;When are you travelling?&quot;,&quot;tour_alert_title&quot;:&quot;Experience %{location} Like a Local&quot;,&quot;tour_alert_title_general&quot;:&quot;Live Like a Local When You Travel&quot;,&quot;tour_alert_text&quot;:&quot;Book unique accommodations from local hosts on Airbnb. %{link_start}How It Works%{link_end}&quot;,&quot;tour_calendar_title&quot;:&quot;Set Your Dates&quot;,&quot;tour_calendar_text&quot;:&quot;You choose your dates and we&#x27;ll show you what&#x27;s available.&quot;,&quot;tour_listing_type_title&quot;:&quot;Choose The Accommodation&quot;,&quot;tour_listing_type_text&quot;:&quot;You can rent an entire home or share the space with your host.&quot;,&quot;tour_host_title&quot;:&quot;Meet The Host&quot;,&quot;tour_host_text&quot;:&quot;Get to know the host through profiles and reviews before you request to book.&quot;,&quot;next&quot;:&quot;Next&quot;,&quot;tour_finish&quot;:&quot;Got It!&quot;,&quot;explore_neighborhoods&quot;:&quot;Explore Neighbourhoods&quot;,&quot;hide_neighborhoods&quot;:&quot;Hide Neighbourhoods&quot;,&quot;show_listings&quot;:&quot;Show Listings&quot;,&quot;neighborhood&quot;:&quot;Neighbourhood&quot;,&quot;community_says&quot;:&quot;The community says:&quot;,&quot;average_price_text&quot;:&quot;Average&quot;,&quot;Password&quot;:&quot;Password&quot;,&quot;users.Confirm_Password_to_Continue&quot;:&quot;Confirm Password to Continue&quot;,&quot;users.Confirm_Password&quot;:&quot;Confirm Password&quot;,&quot;users.Cancel&quot;:&quot;Cancel&quot;,&quot;users.Please_enter_your_Airbnb_password_to_continue.&quot;:&quot;For your security, please enter your Airbnb password to continue.&quot;,&quot;user.signup.forgot_password&quot;:&quot;Forgot password?&quot;,&quot;users.Confirm_Facebook_Password&quot;:&quot;Confirm Facebook Password&quot;,&quot;home&quot;:&quot;Home&quot;,&quot;download_the_app&quot;:&quot;Download the App&quot;,&quot;sign_up&quot;:&quot;Sign Up&quot;,&quot;log_in&quot;:&quot;Log In&quot;,&quot;alerts&quot;:&quot;Alerts&quot;,&quot;inbox&quot;:&quot;Inbox&quot;,&quot;discover&quot;:&quot;Discover&quot;,&quot;search&quot;:&quot;Search&quot;,&quot;how_it_works&quot;:&quot;How it Works&quot;,&quot;help&quot;:&quot;Help&quot;,&quot;invite_friends&quot;:&quot;Invite Friends&quot;,&quot;logout&quot;:&quot;Log Out&quot;,&quot;name&quot;:&quot;User&quot;,&quot;photography&quot;:&quot;Photography&quot;,&quot;your_trips&quot;:&quot;Your Trips&quot;,&quot;close&quot;:&quot;Close&quot;,&quot;where_are_you_going&quot;:&quot;Where are you going?&quot;,&quot;checkin&quot;:&quot;Check in&quot;,&quot;checkout&quot;:&quot;Check out&quot;,&quot;number_of_guests&quot;:&quot;Number of guests&quot;,&quot;room_type_0&quot;:&quot;Entire home/apt&quot;,&quot;room_type_1&quot;:&quot;Private room&quot;,&quot;room_type_2&quot;:&quot;Shared room&quot;,&quot;find_a_place&quot;:&quot;Find a place&quot;,&quot;shared.x guests&quot;:&quot;%{smart_count} guest |||| %{smart_count} guests&quot;,&quot;guests&quot;:&quot;Guests&quot;,&quot;room_type&quot;:&quot;Room type&quot;,&quot;back&quot;:&quot;Back&quot;,&quot;visit the help center&quot;:&quot;Visit the Help Centre&quot;,&quot;view this article in the help center&quot;:&quot;View this article in the Help Centre&quot;,&quot;shared.Messages&quot;:&quot;Messages&quot;,&quot;shared.Notifications&quot;:&quot;Notifications&quot;,&quot;shared.See All&quot;:&quot;See all&quot;,&quot;shared.View Inbox&quot;:&quot;View Inbox&quot;,&quot;notifications.Read All Notifications&quot;:&quot;There is %{smart_count} notification waiting for you in your %{link_start}dashboard%{link_end}.||||There are %{smart_count} notifications waiting for you in your %{link_start}dashboard%{link_end}.&quot;,&quot;notifications.Read All Messages&quot;:&quot;No new messages. You\xe2\x80\x99re all caught up!&quot;,&quot;notifications.Error&quot;:&quot;Sorry, we can\xe2\x80\x99t load new messages right now. %{link_start}View Inbox%{link_end}&quot;,&quot;nothing_here_yet&quot;:&quot;Nothing Here Yet.&quot;,&quot;check_back_for_listings&quot;:&quot;Check back to see all the listings that caught your eye.&quot;,&quot;see_all&quot;:&quot;See All&quot;,&quot;error_retrieving&quot;:&quot;There was an error retrieving your recently viewed listings. Please try again later.&quot;,&quot;airlock.title&quot;:&quot;Security Check&quot;,&quot;airlock.phone_verification.title&quot;:&quot;Phone Verification&quot;,&quot;airlock.phone_verification.option_selection.title&quot;:&quot;Help us keep your account secure.&quot;,&quot;airlock.phone_verification.listing_activate.option_selection.title&quot;:&quot;We need you to confirm this change.&quot;,&quot;airlock.phone_verification.payout_create.option_selection.title&quot;:&quot;We need you to confirm this change.&quot;,&quot;airlock.phone_verification.option_selection.description&quot;:&quot;We want to confirm that it\xe2\x80\x99s really you who\xe2\x80\x99s trying to access your account. To do that, we\xe2\x80\x99ll send a code to a phone you\xe2\x80\x99ve previously verified on Airbnb.&quot;,&quot;airlock.phone_verification.listing_activate.option_selection.description&quot;:&quot;We want to confirm that it\xe2\x80\x99s really you who\xe2\x80\x99s trying to add a listing.  To do that, we\xe2\x80\x99ll send a code to a phone you\xe2\x80\x99ve previously verified on Airbnb.&quot;,&quot;airlock.phone_verification.payout_create.option_selection.description&quot;:&quot;We want to confirm that it\xe2\x80\x99s really you who\xe2\x80\x99s trying to add a payout method.  To do that, we\xe2\x80\x99ll send a code to a phone you\xe2\x80\x99ve previously verified on Airbnb.&quot;,&quot;airlock.phone_verification.option_selection.how&quot;:&quot;How should we send the code?&quot;,&quot;airlock.phone_verification.option_selection.where&quot;:&quot;Where should we send the code?&quot;,&quot;airlock.phone_verification.response.title&quot;:&quot;Enter your 4-digit code.&quot;,&quot;airlock.phone_verification.We sent a code to your phone number&quot;:&quot;We sent a code to your phone number ending in %{last_four_digits}.&quot;,&quot;airlock.phone_verification.Depending on your provider&quot;:&quot;Depending on your provider, it may take a few minutes to arrive.&quot;,&quot;airlock.phone_verification.We will wait right here&quot;:&quot;We\xe2\x80\x99ll wait right here.&quot;,&quot;airlock.phone_verification.Send me a text message&quot;:&quot;Send me a text message (SMS)&quot;,&quot;airlock.phone_verification.Call me&quot;:&quot;Call me&quot;,&quot;airlock.api_error&quot;:&quot;Something went wrong while processing your request. Please try again.&quot;,&quot;airlock.phone_verification.Phone number ending in&quot;:&quot;Phone number ending in %{last_four}&quot;,&quot;airlock.phone_verification.Enter Your Code&quot;:&quot;Enter Your Code&quot;,&quot;airlock.phone_verification.response.invalid&quot;:&quot;Looks like you entered the code incorrectly.&quot;,&quot;airlock.account_disabled.introduction.title&quot;:&quot;Account Disabled&quot;,&quot;airlock.account_disabled.introduction.introduction&quot;:&quot;To help protect your information, we\xe2\x80\x99ve temporarily blocked your Airbnb account.&quot;,&quot;airlock.account_disabled.introduction.description&quot;:&quot;To restore access, send an email to account.disabled@airbnb.com from an email address associated with your Airbnb account.&quot;,&quot;airlock.no_phone_access.introduction.title&quot;:&quot;Emailing us will take longer.&quot;,&quot;airlock.no_phone_access.introduction.introduction&quot;:&quot;For security reasons, having Airbnb manually confirm this change can take 1-2 days. Email us at &lt;a href=\\&quot;mailto:account.disabled@airbnb.com\\&quot;&gt;account.disabled@airbnb.com&lt;/a&gt; from an address associated with your account and we\xe2\x80\x99ll take it from there.&quot;,&quot;airlock.no_phone_access.introduction.tip.title&quot;:&quot;Make this update faster with your phone&quot;,&quot;airlock.no_phone_access.introduction.tip.description&quot;:&quot;If you\xe2\x80\x99re travelling or your phone\xe2\x80\x99s just out of reach, wait until you get it back and try to make this update again.&quot;,&quot;airlock.no_phone_access.Send Me a Code&quot;:&quot;Send Me a Code&quot;,&quot;airlock.no_phone_access.Email Airbnb&quot;:&quot;Email Airbnb&quot;,&quot;airlock.contact_us.response.title&quot;:&quot;Contact Us&quot;,&quot;airlock.contact_us.response.description&quot;:&quot;For your security, we would like to further verify your account.  Please contact us at &lt;a href=\\&quot;mailto:account.disabled@airbnb.com\\&quot;&gt;account.disabled@airbnb.com&lt;/a&gt;.&quot;,&quot;airlock.introduction&quot;:&quot;In order to continue, we ask that you complete a few challenges.&quot;,&quot;airlock.Get Started&quot;:&quot;Get Started&quot;,&quot;airlock.Continue&quot;:&quot;Continue&quot;,&quot;airlock.Next&quot;:&quot;Next&quot;,&quot;airlock.Back&quot;:&quot;Back&quot;,&quot;airlock.success.Thanks&quot;:&quot;Thanks %{first_name}&quot;,&quot;airlock.success.You are done&quot;:&quot;You\xe2\x80\x99re done! You can go back to what you were doing.&quot;,&quot;airlock.error.Oops!&quot;:&quot;Oops!&quot;,&quot;choose_language&quot;:&quot;Choose language&quot;,&quot;choose_currency&quot;:&quot;Choose currency&quot;,&quot;clear_dates&quot;:&quot;Clear Dates&quot;,&quot;datepicker_updated_years_ago&quot;:&quot;Updated %{smart_count} year ago |||| Updated %{smart_count} years ago&quot;,&quot;datepicker_updated_months_ago&quot;:&quot;Updated %{smart_count} month ago |||| Updated %{smart_count} months ago&quot;,&quot;datepicker_updated_days_ago&quot;:&quot;Updated %{smart_count} day ago |||| Updated %{smart_count} days ago&quot;,&quot;datepicker_updated_today&quot;:&quot;Updated today&quot;,&quot;datepicker_never_updated&quot;:&quot;Never updated&quot;,&quot;datepicker_min_nights&quot;:&quot;%{smart_count} night minimum stay |||| %{smart_count} night minimum stay&quot;,&quot;datepicker_min_nights_this_month&quot;:&quot;%{smart_count} night min. this month |||| %{smart_count} nights min. this month&quot;,&quot;datepicker_min_nights_varies&quot;:&quot;Minimum stay varies&quot;}" id="_bootstrap-phrases" />\n<meta content="{&quot;canonical_host&quot;:&quot;www.airbnb.ca&quot;,&quot;language&quot;:&quot;en&quot;,&quot;locale&quot;:&quot;en-CA&quot;,&quot;api_config&quot;:{&quot;baseUrl&quot;:&quot;https://www.airbnb.ca/api&quot;,&quot;key&quot;:&quot;d306zoyjsyarp7ifhu67rjxn52tv0t20&quot;},&quot;deep_link&quot;:null,&quot;tracking_context&quot;:{&quot;source&quot;:&quot;monorail&quot;,&quot;platform&quot;:&quot;js&quot;,&quot;version&quot;:&quot;9758ef44573d9ec5d09fcdb9d7c75cce179160f9&quot;,&quot;controller&quot;:&quot;search&quot;,&quot;action&quot;:&quot;index&quot;,&quot;req_uuid&quot;:&quot;96e60a0f-e4be-4e6b-9c75-86c4b9f8e57f&quot;,&quot;shardset&quot;:&quot;a0,a1,a2&quot;},&quot;no_flash_alerts&quot;:null,&quot;google_maps_url&quot;:&quot;https://maps.googleapis.com/maps/api/js?language=en-CA&amp;region=CA&amp;sensor=false&amp;v=3.13&amp;libraries=places&amp;client=gme-airbnbinc&amp;channel=monorail-prod&quot;,&quot;open_street_map_url&quot;:&quot;https://api.tiles.mapbox.com/mapbox.js/v2.1.4/mapbox.js&quot;}" id="_bootstrap-layout-init" />\n<meta content="{&quot;data&quot;:{&quot;country&quot;:&quot;CA&quot;,&quot;tld_country&quot;:&quot;CA&quot;,&quot;currencies&quot;:{&quot;AED&quot;:{&quot;symbol&quot;:&quot;&amp;#1583;.&amp;#1573;&quot;,&quot;code_required&quot;:false,&quot;options&quot;:{&quot;unicode_symbol&quot;:&quot;\xef\xba\xa9.\xef\xba\x87&quot;}},&quot;ARS&quot;:{&quot;symbol&quot;:&quot;$&quot;,&quot;code_required&quot;:true,&quot;options&quot;:null},&quot;AUD&quot;:{&quot;symbol&quot;:&quot;$&quot;,&quot;code_required&quot;:true,&quot;options&quot;:null},&quot;BRL&quot;:{&quot;symbol&quot;:&quot;R$&quot;,&quot;code_required&quot;:false,&quot;options&quot;:{&quot;space_between_price_and_symbol&quot;:true}},&quot;CAD&quot;:{&quot;symbol&quot;:&quot;$&quot;,&quot;code_required&quot;:true,&quot;options&quot;:null},&quot;CHF&quot;:{&quot;symbol&quot;:&quot;CHF&quot;,&quot;code_required&quot;:false,&quot;options&quot;:{&quot;position&quot;:&quot;after&quot;,&quot;space_between_price_and_symbol&quot;:true}},&quot;CNY&quot;:{&quot;symbol&quot;:&quot;&amp;yen;&quot;,&quot;code_required&quot;:false,&quot;options&quot;:{&quot;unicode_symbol&quot;:&quot;\xc2\xa5&quot;}},&quot;CRC&quot;:{&quot;symbol&quot;:&quot;&amp;#8353;&quot;,&quot;code_required&quot;:false,&quot;options&quot;:{&quot;unicode_symbol&quot;:&quot;\xe2\x82\xa1&quot;}},&quot;CZK&quot;:{&quot;symbol&quot;:&quot;&amp;#75;&amp;#269;&quot;,&quot;code_required&quot;:false,&quot;options&quot;:{&quot;unicode_symbol&quot;:&quot;K\xc4\x8d&quot;}},&quot;DKK&quot;:{&quot;symbol&quot;:&quot;kr&quot;,&quot;code_required&quot;:true,&quot;options&quot;:{&quot;position&quot;:&quot;after&quot;,&quot;space_between_price_and_symbol&quot;:true,&quot;explicit_currency_not_aesthetic&quot;:true}},&quot;EUR&quot;:{&quot;symbol&quot;:&quot;&amp;euro;&quot;,&quot;code_required&quot;:false,&quot;options&quot;:{&quot;unicode_symbol&quot;:&quot;\xe2\x82\xac&quot;,&quot;position&quot;:&quot;special&quot;}},&quot;GBP&quot;:{&quot;symbol&quot;:&quot;&amp;pound;&quot;,&quot;code_required&quot;:false,&quot;options&quot;:{&quot;unicode_symbol&quot;:&quot;\xc2\xa3&quot;}},&quot;HKD&quot;:{&quot;symbol&quot;:&quot;$&quot;,&quot;code_required&quot;:true,&quot;options&quot;:null},&quot;HRK&quot;:{&quot;symbol&quot;:&quot;kn&quot;,&quot;code_required&quot;:false,&quot;options&quot;:null},&quot;HUF&quot;:{&quot;symbol&quot;:&quot;Ft&quot;,&quot;code_required&quot;:false,&quot;options&quot;:null},&quot;IDR&quot;:{&quot;symbol&quot;:&quot;Rp&quot;,&quot;code_required&quot;:false,&quot;options&quot;:null},&quot;ILS&quot;:{&quot;symbol&quot;:&quot;&amp;#8362;&quot;,&quot;code_required&quot;:false,&quot;options&quot;:{&quot;unicode_symbol&quot;:&quot;\xe2\x82\xaa&quot;,&quot;space_between_price_and_symbol&quot;:true}},&quot;INR&quot;:{&quot;symbol&quot;:&quot;&amp;#8377;&quot;,&quot;code_required&quot;:false,&quot;options&quot;:{&quot;unicode_symbol&quot;:&quot;\xe2\x82\xb9&quot;}},&quot;JPY&quot;:{&quot;symbol&quot;:&quot;&amp;yen;&quot;,&quot;code_required&quot;:false,&quot;options&quot;:{&quot;unicode_symbol&quot;:&quot;\xc2\xa5&quot;,&quot;space_between_price_and_symbol&quot;:true}},&quot;KRW&quot;:{&quot;symbol&quot;:&quot;&amp;#8361;&quot;,&quot;code_required&quot;:false,&quot;options&quot;:{&quot;unicode_symbol&quot;:&quot;\xe2\x82\xa9&quot;}},&quot;MAD&quot;:{&quot;symbol&quot;:&quot;MAD&quot;,&quot;code_required&quot;:false,&quot;options&quot;:null},&quot;MXN&quot;:{&quot;symbol&quot;:&quot;$&quot;,&quot;code_required&quot;:true,&quot;options&quot;:null},&quot;MYR&quot;:{&quot;symbol&quot;:&quot;&amp;#82;&amp;#77;&quot;,&quot;code_required&quot;:false,&quot;options&quot;:{&quot;unicode_symbol&quot;:&quot;RM&quot;}},&quot;NOK&quot;:{&quot;symbol&quot;:&quot;kr&quot;,&quot;code_required&quot;:true,&quot;options&quot;:{&quot;position&quot;:&quot;after&quot;,&quot;space_between_price_and_symbol&quot;:true,&quot;explicit_currency_not_aesthetic&quot;:true}},&quot;NZD&quot;:{&quot;symbol&quot;:&quot;$&quot;,&quot;code_required&quot;:true,&quot;options&quot;:null},&quot;PEN&quot;:{&quot;symbol&quot;:&quot;&amp;#83;&amp;#47;&amp;#46;&quot;,&quot;code_required&quot;:false,&quot;options&quot;:{&quot;unicode_symbol&quot;:&quot;S/.&quot;}},&quot;PHP&quot;:{&quot;symbol&quot;:&quot;&amp;#8369;&quot;,&quot;code_required&quot;:false,&quot;options&quot;:{&quot;unicode_symbol&quot;:&quot;\xe2\x82\xb1&quot;}},&quot;PLN&quot;:{&quot;symbol&quot;:&quot;z&amp;#22;&amp;#322;&quot;,&quot;code_required&quot;:false,&quot;options&quot;:{&quot;unicode_symbol&quot;:&quot;z\xc5\x82&quot;,&quot;position&quot;:&quot;after&quot;,&quot;space_between_price_and_symbol&quot;:true}},&quot;RON&quot;:{&quot;symbol&quot;:&quot;lei&quot;,&quot;code_required&quot;:false,&quot;options&quot;:null},&quot;RUB&quot;:{&quot;symbol&quot;:&quot;&amp;#1088;&quot;,&quot;code_required&quot;:false,&quot;options&quot;:{&quot;unicode_symbol&quot;:&quot;\xd1\x80&quot;,&quot;position&quot;:&quot;after&quot;}},&quot;SEK&quot;:{&quot;symbol&quot;:&quot;kr&quot;,&quot;code_required&quot;:true,&quot;options&quot;:{&quot;position&quot;:&quot;after&quot;,&quot;space_between_price_and_symbol&quot;:true,&quot;explicit_currency_not_aesthetic&quot;:true}},&quot;SGD&quot;:{&quot;symbol&quot;:&quot;$&quot;,&quot;code_required&quot;:true,&quot;options&quot;:null},&quot;THB&quot;:{&quot;symbol&quot;:&quot;&amp;#3647;&quot;,&quot;code_required&quot;:false,&quot;options&quot;:{&quot;unicode_symbol&quot;:&quot;\xe0\xb8\xbf&quot;}},&quot;TRY&quot;:{&quot;symbol&quot;:&quot;&amp;#84;&amp;#76;&quot;,&quot;code_required&quot;:false,&quot;options&quot;:{&quot;unicode_symbol&quot;:&quot;TL&quot;,&quot;position&quot;:&quot;after&quot;,&quot;space_between_price_and_symbol&quot;:true}},&quot;TWD&quot;:{&quot;symbol&quot;:&quot;$&quot;,&quot;code_required&quot;:true,&quot;options&quot;:null},&quot;USD&quot;:{&quot;symbol&quot;:&quot;$&quot;,&quot;code_required&quot;:false,&quot;options&quot;:null},&quot;VND&quot;:{&quot;symbol&quot;:&quot;&amp;#8363;&quot;,&quot;code_required&quot;:false,&quot;options&quot;:{&quot;unicode_symbol&quot;:&quot;\xe2\x82\xab&quot;}},&quot;ZAR&quot;:{&quot;symbol&quot;:&quot;R&quot;,&quot;code_required&quot;:true,&quot;options&quot;:null}},&quot;current_locale_name&quot;:&quot;English (Canada)&quot;,&quot;languages&quot;:[{&quot;locale_name&quot;:&quot;Bahasa Indonesia&quot;,&quot;locale&quot;:&quot;id&quot;},{&quot;locale_name&quot;:&quot;Bahasa Melayu&quot;,&quot;locale&quot;:&quot;ms&quot;},{&quot;locale_name&quot;:&quot;Catal\xc3\xa0&quot;,&quot;locale&quot;:&quot;ca&quot;},{&quot;locale_name&quot;:&quot;Dansk&quot;,&quot;locale&quot;:&quot;da&quot;},{&quot;locale_name&quot;:&quot;Deutsch&quot;,&quot;locale&quot;:&quot;de&quot;},{&quot;locale_name&quot;:&quot;English&quot;,&quot;locale&quot;:&quot;en&quot;},{&quot;locale_name&quot;:&quot;Espa\xc3\xb1ol&quot;,&quot;locale&quot;:&quot;es&quot;},{&quot;locale_name&quot;:&quot;E\xce\xbb\xce\xbb\xce\xb7\xce\xbd\xce\xb9\xce\xba\xce\xac&quot;,&quot;locale&quot;:&quot;el&quot;},{&quot;locale_name&quot;:&quot;Fran\xc3\xa7ais&quot;,&quot;locale&quot;:&quot;fr&quot;},{&quot;locale_name&quot;:&quot;Italiano&quot;,&quot;locale&quot;:&quot;it&quot;},{&quot;locale_name&quot;:&quot;Magyar&quot;,&quot;locale&quot;:&quot;hu&quot;},{&quot;locale_name&quot;:&quot;Nederlands&quot;,&quot;locale&quot;:&quot;nl&quot;},{&quot;locale_name&quot;:&quot;Norsk&quot;,&quot;locale&quot;:&quot;no&quot;},{&quot;locale_name&quot;:&quot;Polski&quot;,&quot;locale&quot;:&quot;pl&quot;},{&quot;locale_name&quot;:&quot;Portugu\xc3\xaas&quot;,&quot;locale&quot;:&quot;pt&quot;},{&quot;locale_name&quot;:&quot;Suomi&quot;,&quot;locale&quot;:&quot;fi&quot;},{&quot;locale_name&quot;:&quot;Svenska&quot;,&quot;locale&quot;:&quot;sv&quot;},{&quot;locale_name&quot;:&quot;T\xc3\xbcrk\xc3\xa7e&quot;,&quot;locale&quot;:&quot;tr&quot;},{&quot;locale_name&quot;:&quot;\xc3\x8dslenska&quot;,&quot;locale&quot;:&quot;is&quot;},{&quot;locale_name&quot;:&quot;\xc4\x8ce\xc5\xa1tina&quot;,&quot;locale&quot;:&quot;cs&quot;},{&quot;locale_name&quot;:&quot;\xd0\xa0\xd1\x83\xd1\x81\xd1\x81\xd0\xba\xd0\xb8\xd0\xb9&quot;,&quot;locale&quot;:&quot;ru&quot;},{&quot;locale_name&quot;:&quot;\xe0\xb8\xa0\xe0\xb8\xb2\xe0\xb8\xa9\xe0\xb8\xb2\xe0\xb9\x84\xe0\xb8\x97\xe0\xb8\xa2&quot;,&quot;locale&quot;:&quot;th&quot;},{&quot;locale_name&quot;:&quot;\xe4\xb8\xad\xe6\x96\x87 (\xe7\xae\x80\xe4\xbd\x93)&quot;,&quot;locale&quot;:&quot;zh&quot;},{&quot;locale_name&quot;:&quot;\xe4\xb8\xad\xe6\x96\x87 (\xe7\xb9\x81\xe9\xab\x94)&quot;,&quot;locale&quot;:&quot;zh-TW&quot;},{&quot;locale_name&quot;:&quot;\xe6\x97\xa5\xe6\x9c\xac\xe8\xaa\x9e&quot;,&quot;locale&quot;:&quot;ja&quot;},{&quot;locale_name&quot;:&quot;\xed\x95\x9c\xea\xb5\xad\xec\x96\xb4&quot;,&quot;locale&quot;:&quot;ko&quot;}]}}" id="_bootstrap-i18n-init" />\n<meta content="{&quot;enabled&quot;:true,&quot;appId&quot;:&quot;138566025676&quot;,&quot;scope&quot;:&quot;email,user_birthday,user_likes,user_education_history,user_hometown,user_location,user_friends&quot;,&quot;sdkUrl&quot;:&quot;https://connect.facebook.net/en_US/sdk.js&quot;}" id="_bootstrap-facebook-init" />\n<meta content="{&quot;packages/field_guide.bundle.js&quot;:&quot;https://a1.muscache.com/airbnb/static/packages/field_guide.bundle-4666628815cada0500a6baaebbeae844.js&quot;,&quot;packages/airlock_modal.bundle.js&quot;:&quot;https://a0.muscache.com/airbnb/static/packages/airlock_modal.bundle-a5dbe2498d9887ab4d1549bf96b15d55.js&quot;}" id="_bootstrap-javascript_paths" />\n<meta content="true" id="_bootstrap-is-signup-prompt-page" />\n<meta content="{&quot;page2/address_pin.png&quot;:&quot;https://a1.muscache.com/airbnb/static/page2/address_pin-afe611fc31d51fc079f16e55448b8a22.png&quot;}" id="_bootstrap-p2_marker_image_path" />\n<meta content="&quot;Google&quot;" id="_bootstrap-map_provider" />\n<meta content="&quot;san-francisco--ca&quot;" id="_bootstrap-canonical_remarketing_location" />\n<meta content="{&quot;p3_map_css&quot;:&quot;https://a2.muscache.com/airbnb/static/packages/p3-18ed34008a77d370caaac38121db02bb.css&quot;,&quot;p3_map_templates&quot;:&quot;https://a2.muscache.com/airbnb/static/packages/p3_template_manifest-6143fdbea589f081e59e43f07043d555.js&quot;,&quot;p3_map_js&quot;:&quot;https://a1.muscache.com/airbnb/static/packages/p3.bundle-5223ba638e03407b69c0ac84c31500b0.js&quot;}" id="_bootstrap-p2_preload" />\n<meta content="{&quot;p2_pois&quot;:false,&quot;p2_pois_override&quot;:false,&quot;p2_hoodie&quot;:false,&quot;p2_hoodie_override&quot;:false,&quot;search.search_autocomplete_bounds&quot;:true}" id="_bootstrap-trebuchet" />\n<meta content="false" id="_bootstrap-saved_search_kill" />\n<meta content="false" id="_bootstrap-saved_search_kill_sync" />\n\n    <div id="gmap-preload" class="hide"></div>\n    <!--[if lt IE 9]>\n      <script src="https://a2.muscache.com/airbnb/static/packages/libs_jquery_1x-607d5cba49e30689521c3cf0e108424b.js" type="text/javascript"></script>\n    <![endif]-->\n    <!--[if gte IE 9]><!-->\n      <script src="https://a0.muscache.com/airbnb/static/packages/libs_jquery_2x-f385e4d74c902b33ebd4bac3e3111598.js" type="text/javascript"></script>\n    <!--<![endif]-->\n    <script src="https://a1.muscache.com/airbnb/static/packages/o2.1-e9d096bf5771e5e17c6ed9dbd80c0545.js" type="text/javascript"></script>\n    <script src="https://a2.muscache.com/airbnb/static/packages/core.bundle-bc31f893da7805649fb9266fccc425c1.js" type="text/javascript"></script>\n\n    <script>\n\n      Airbnb.init();\n</script>\n\n    <div id="fb-root"></div>\n\n      <script>\n\n    if (!require(\'o2\').matchMedia.is(\'sm\')) {\n      Airbnb.Utils.preloadGoogleMapsCommon();\n    }\n</script>\n    <script src="https://a2.muscache.com/airbnb/static/packages/p2.bundle-3947d89a37e9af16d8d9fd75d955ec36.js" type="text/javascript"></script>\n    \n\n  </body>\n</html>\n<!-- ver. 9758ef44573d9ec5d09fcdb9d7c75cce179160f9 -->\n'
p86
sS'encoding'
p87
S'utf-8'
p88
sS'url'
p89
Vhttps://www.airbnb.ca/s/San-Francisco--CA--United-States?checkin=07-09-2015&checkout=07-11-2015&guests=2&locale=en&price_max=400
p90
sS'status_code'
p91
I200
sS'request'
p92
g0
(crequests.models
PreparedRequest
p93
g2
Ntp94
Rp95
(dp96
S'body'
p97
Nsg89
S'https://www.airbnb.ca/s/San-Francisco--CA--United-States?checkin=07-09-2015&checkout=07-11-2015&guests=2&locale=en&price_max=400'
p98
sS'hooks'
p99
(dp100
S'response'
p101
(lp102
ssS'headers'
p103
g0
(crequests.structures
CaseInsensitiveDict
p104
g2
Ntp105
Rp106
(dp107
S'_store'
p108
(dp109
S'connection'
p110
(S'Connection'
p111
S'keep-alive'
p112
tp113
sS'accept-encoding'
p114
(S'Accept-Encoding'
p115
S'gzip, deflate'
p116
tp117
sS'accept'
p118
(S'Accept'
p119
S'*/*'
p120
tp121
sS'user-agent'
p122
(S'User-Agent'
p123
S'python-requests/2.7.0 CPython/2.7.9 Darwin/14.3.0'
p124
tp125
ssbsg27
g0
(g7
g2
Ntp126
Rp127
(dp128
g11
I1434667369
sg12
(icookielib
DefaultCookiePolicy
p129
(dp130
g15
I01
sg16
I0
sg17
Nsg18
Nsg19
I00
sg20
I00
sg11
I1434667369
sg21
I00
sg22
I00
sg23
I00
sg24
I00
sg25
(tsg26
I01
sbsg27
(dp131
S'.airbnb.com'
p132
(dp133
g31
(dp134
S'mdr_browser'
p135
(icookielib
Cookie
p136
(dp137
g36
Nsg37
S'.airbnb.com'
p138
sg54
I00
sg40
I1434674569
sg43
I01
sg44
(dp139
sg51
g31
sg52
Nsg48
I00
sg38
S'mdr_browser'
p140
sg39
I01
sg41
S'desktop'
p141
sg46
I0
sg47
I00
sg50
I01
sg49
I00
sg53
NsbsS'_airbed_session_id'
p142
(icookielib
Cookie
p143
(dp144
g36
Nsg37
S'.airbnb.com'
p145
sg54
I01
sg40
Nsg43
I01
sg44
(dp146
S'HttpOnly'
p147
Nssg51
g31
sg52
Nsg48
I00
sg38
S'_airbed_session_id'
p148
sg39
I01
sg41
S'5ecfd50ca49a6c2c6c14875caa683bfd'
p149
sg46
I0
sg47
I00
sg50
I01
sg49
I01
sg53
NsbssssbsS'method'
p150
S'GET'
p151
sbsS'elapsed'
p152
cdatetime
timedelta
p153
(I0
I1
I650472
tp154
Rp155
sg103
g0
(g104
g2
Ntp156
Rp157
(dp158
g108
(dp159
S'status'
p160
(S'status'
p161
S'200 OK'
p162
tp163
sS'content-length'
p164
(S'content-length'
p165
S'19993'
p166
tp167
sS'x-xss-protection'
p168
(S'x-xss-protection'
p169
S'1; mode=block'
p170
tp171
sS'content-security-policy'
p172
(S'content-security-policy'
p173
S"default-src 'self' https:; connect-src 'self' https: *.mapbox.com *.inspectlet.com ws://inspectletws.herokuapp.com wss://inspectletws.herokuapp.com http:; font-src 'self' https:; frame-src *; img-src 'self' https: *.mapbox.com *.inspectlet.com http: data:; media-src 'self' https:; object-src 'self' https:; script-src 'sha256-r+j1N0bDxwFjMYZut7KCW2ndSM//ggvhTWMHIUvlwgw=' 'sha256-8Kp4YIWqA8yhCJaTWnmB7Wv7OjnXnX661ygwccVuDRw=' 'sha256-q75xhLoJt57DnU0IITbgtV/tD73PJ6bao86bj4pB/XM=' 'sha256-+DiANpY+GXjnCGOB1JGKEkNzE8PgbQY1SG6gUV2nvJw=' 'self' https: 'unsafe-eval' 'unsafe-inline' *.mapbox.com *.inspectlet.com http:; style-src 'self' https: 'unsafe-inline' *.mapbox.com http:; report-uri /tracking/csp?action=index&controller=search&req_uuid=96e60a0f-e4be-4e6b-9c75-86c4b9f8e57f&version=9758ef44573d9ec5d09fcdb9d7c75cce179160f9;"
p174
tp175
sS'content-encoding'
p176
(S'content-encoding'
p177
S'gzip'
p178
tp179
sS'set-cookie'
p180
(S'set-cookie'
p181
S'sticky_locale=; path=/; expires=Thu, 01-Jan-1970 00:00:00 GMT, sticky_locale=; domain=.airbnb.ca; path=/; expires=Thu, 01-Jan-1970 00:00:00 GMT, sticky_locale=en; domain=.airbnb.ca; path=/; expires=Sun, 18-Jun-2017 22:42:50 GMT; secure, bev=1434667370_4Z9HSAgOvjH6ZoJM; domain=.airbnb.ca; path=/; expires=Sat, 17-Jun-2017 22:42:50 GMT; secure, _csrf_token=V4%24.airbnb.ca%24EVcsGSDWn6k%24k4-4lNryK_CMDKRIPMmh5_MHXgZO9bQ2lRFEEnuIP-4%3D; domain=.airbnb.ca; path=/; secure, _user_attributes=%7B%22curr%22%3A%22CAD%22%2C%22guest_exchange%22%3A1.22986%7D; domain=.airbnb.ca; path=/; secure, flags=268439552; domain=.airbnb.ca; path=/; secure, mdr_browser=desktop; expires=Fri, 19-Jun-2015 00:42:51 GMT; path=/; domain=.airbnb.ca'
p182
tp183
sS'strict-transport-security'
p184
(S'strict-transport-security'
p185
S'max-age=10886400; includeSubdomains'
p186
tp187
sS'vary'
p188
(S'vary'
p189
S'Accept-Encoding'
p190
tp191
sS'server'
p192
(S'server'
p193
S'nginx/1.7.12'
p194
tp195
sS'connection'
p196
(S'connection'
p197
S'keep-alive'
p198
tp199
sS'etag'
p200
(S'etag'
p201
S'W/"6907ebc1532545bb62e82bd1431ced34"'
p202
tp203
sS'x-ua-compatible'
p204
(S'x-ua-compatible'
p205
S'IE=Edge,chrome=1'
p206
tp207
sS'cache-control'
p208
(S'cache-control'
p209
S'max-age=0, private, must-revalidate'
p210
tp211
sS'date'
p212
(S'date'
p213
S'Thu, 18 Jun 2015 22:42:51 GMT'
p214
tp215
sS'x-frame-options'
p216
(S'x-frame-options'
p217
S'SAMEORIGIN'
p218
tp219
sS'content-type'
p220
(S'content-type'
p221
S'text/html; charset=utf-8'
p222
tp223
sS'x-hi-human'
p224
(S'x-hi-human'
p225
S'The Production Infrastructure team added this header. Come work with us! Email kevin.rice+hiring@airbnb.com'
p226
tp227
ssbsS'reason'
p228
S'OK'
p229
sS'history'
p230
(lp231
g0
(g1
g2
Ntp232
Rp233
(dp234
g6
g0
(g7
g2
Ntp235
Rp236
(dp237
g11
I1434667369
sg12
(icookielib
DefaultCookiePolicy
p238
(dp239
g15
I01
sg16
I0
sg17
Nsg18
Nsg19
I00
sg20
I00
sg11
I1434667369
sg21
I00
sg22
I00
sg23
I00
sg24
I00
sg25
(tsg26
I01
sbsg27
(dp240
S'.airbnb.com'
p241
(dp242
g31
(dp243
S'mdr_browser'
p244
(icookielib
Cookie
p245
(dp246
g36
Nsg37
S'.airbnb.com'
p247
sg38
g244
sg39
I01
sg40
I1434674569
sg41
S'desktop'
p248
sg43
I01
sg44
(dp249
sg46
I0
sg47
I00
sg48
I00
sg49
I00
sg50
I01
sg51
g31
sg52
Nsg53
Nsg54
I00
sbsS'_airbed_session_id'
p250
(icookielib
Cookie
p251
(dp252
g36
Nsg37
g241
sg38
g250
sg39
I01
sg40
Nsg41
S'5ecfd50ca49a6c2c6c14875caa683bfd'
p253
sg43
I01
sg44
(dp254
S'HttpOnly'
p255
Nssg46
I0
sg47
I00
sg48
I00
sg49
I01
sg50
I01
sg51
g31
sg52
Nsg53
Nsg54
I01
sbssssbsg85
S'<html><body>You are being <a href="https://www.airbnb.ca/s/San-Francisco--CA--United-States?checkin=07-09-2015&amp;checkout=07-11-2015&amp;guests=2&amp;locale=en&amp;price_max=400">redirected</a>.</body></html>'
p256
sg87
S'utf-8'
p257
sg89
Vhttps://www.airbnb.com/s/San-Francisco--CA--United-States?price_max=400&checkin=07-09-2015&checkout=07-11-2015&guests=2
p258
sg91
I302
sg92
g0
(g93
g2
Ntp259
Rp260
(dp261
g97
Nsg89
S'https://www.airbnb.com/s/San-Francisco--CA--United-States?price_max=400&checkin=07-09-2015&checkout=07-11-2015&guests=2'
p262
sg99
g100
sg103
g0
(g104
g2
Ntp263
Rp264
(dp265
g108
(dp266
S'connection'
p267
(g111
g112
tp268
sS'accept-encoding'
p269
(g115
g116
tp270
sS'accept'
p271
(g119
g120
tp272
sS'user-agent'
p273
(g123
g124
tp274
ssbsg27
g0
(g7
g2
Ntp275
Rp276
(dp277
g11
I1434667368
sg12
(icookielib
DefaultCookiePolicy
p278
(dp279
g15
I01
sg16
I0
sg17
Nsg18
Nsg19
I00
sg20
I00
sg11
I1434667368
sg21
I00
sg22
I00
sg23
I00
sg24
I00
sg25
(tsg26
I01
sbsg27
(dp280
sbsg150
S'GET'
p281
sbsg152
g153
(I0
I0
I515024
tp282
Rp283
sg103
g0
(g104
g2
Ntp284
Rp285
(dp286
g108
(dp287
S'status'
p288
(S'status'
p289
S'302 Found'
p290
tp291
sS'transfer-encoding'
p292
(S'transfer-encoding'
p293
S'chunked'
p294
tp295
sS'set-cookie'
p296
(S'set-cookie'
p297
S'_airbed_session_id=5ecfd50ca49a6c2c6c14875caa683bfd; domain=.airbnb.com; path=/; secure; HttpOnly, mdr_browser=desktop; expires=Fri, 19-Jun-2015 00:42:49 GMT; path=/; domain=.airbnb.com'
p298
tp299
sS'strict-transport-security'
p300
(S'strict-transport-security'
p301
S'max-age=10886400; includeSubdomains'
p302
tp303
sS'server'
p304
(S'server'
p305
S'nginx/1.7.12'
p306
tp307
sS'connection'
p308
(S'connection'
p309
S'keep-alive, Transfer-Encoding'
p310
tp311
sS'etag'
p312
(S'etag'
p313
S'"df0f77c202b856a3e6da87d4c2b4773b"'
p314
tp315
sS'x-ua-compatible'
p316
(S'x-ua-compatible'
p317
S'IE=Edge,chrome=1'
p318
tp319
sS'cache-control'
p320
(S'cache-control'
p321
S'no-cache'
p322
tp323
sS'date'
p324
(S'date'
p325
S'Thu, 18 Jun 2015 22:42:49 GMT'
p326
tp327
sS'x-hi-human'
p328
(S'x-hi-human'
p329
S'The Production Infrastructure team added this header. Come work with us! Email kevin.rice+hiring@airbnb.com'
p330
tp331
sS'content-type'
p332
(S'content-type'
p333
S'text/html; charset=utf-8'
p334
tp335
sS'location'
p336
(S'location'
p337
S'https://www.airbnb.ca/s/San-Francisco--CA--United-States?checkin=07-09-2015&checkout=07-11-2015&guests=2&locale=en&price_max=400'
p338
tp339
ssbsg228
S'Moved Temporarily'
p340
sg230
(lp341
sbasb.