ccopy_reg
_reconstructor
p0
(cpandas.core.frame
DataFrame
p1
c__builtin__
object
p2
Ntp3
Rp4
g0
(cpandas.core.internals
BlockManager
p5
g2
Ntp6
Rp7
((lp8
cpandas.core.index
_new_Index
p9
(cpandas.core.index
Index
p10
(dp11
S'data'
p12
cnumpy.core.multiarray
_reconstruct
p13
(cnumpy
ndarray
p14
(I0
tp15
S'b'
p16
tp17
Rp18
(I1
(I4
tp19
cnumpy
dtype
p20
(S'O8'
p21
I0
I1
tp22
Rp23
(I3
S'|'
p24
NNNI-1
I-1
I63
tp25
bI00
(lp26
S'city_id'
p27
aS'city'
p28
aS'state'
p29
aS'country'
p30
atp31
bsS'name'
p32
Nstp33
Rp34
ag9
(cpandas.core.index
Int64Index
p35
(dp36
g12
g13
(g14
(I0
tp37
g16
tp38
Rp39
(I1
(I2
tp40
g20
(S'i8'
p41
I0
I1
tp42
Rp43
(I3
S'<'
p44
NNNI-1
I-1
I0
tp45
bI00
S'\x00\x00\x00\x00\x00\x00\x00\x00\x01\x00\x00\x00\x00\x00\x00\x00'
p46
tp47
bsg32
Nstp48
Rp49
a(lp50
g13
(g14
(I0
tp51
g16
tp52
Rp53
(I1
(I1
I2
tp54
g43
I00
S'\x01\x00\x00\x00\x00\x00\x00\x00\x02\x00\x00\x00\x00\x00\x00\x00'
p55
tp56
bag13
(g14
(I0
tp57
g16
tp58
Rp59
(I1
(I3
I2
tp60
g23
I00
(lp61
S'San-Francisco'
p62
aS'New-York'
p63
aS'CA'
p64
aS'NY'
p65
aS'United-States'
p66
ag66
atp67
ba(lp68
g9
(g10
(dp69
g12
g13
(g14
(I0
tp70
g16
tp71
Rp72
(I1
(I1
tp73
g23
I00
(lp74
g27
atp75
bsg32
Nstp76
Rp77
ag9
(g10
(dp78
g12
g13
(g14
(I0
tp79
g16
tp80
Rp81
(I1
(I3
tp82
g23
I00
(lp83
g28
ag29
ag30
atp84
bsg32
Nstp85
Rp86
a(dp87
S'0.14.1'
p88
(dp89
S'axes'
p90
g8
sS'blocks'
p91
(lp92
(dp93
S'mgr_locs'
p94
c__builtin__
slice
p95
(I0
I1
I1
tp96
Rp97
sS'values'
p98
g53
sa(dp99
g94
g95
(I1
I4
I1
tp100
Rp101
sg98
g59
sasstp102
bb.