c__builtin__
set
p0
((lp1
Vprospect
p2
aVupper
p3
aVbars
p4
aVheart
p5
aVmission
p6
aVtartine
p7
aVvillage
p8
aVhome
p9
aVnolita
p10
aVboutiques
p11
aVbest
p12
aVliving
p13
aVitaly
p14
aVwilliamsburg
p15
aVdolores
p16
aVlocation
p17
aVth
p18
aVvalencia
p19
aVeast
p20
aVhill
p21
aVnoe
p22
aVpark
p23
aVbrooklyn
p24
aVtrain
p25
aVline
p26
aVentire
p27
aVlower
p28
aVvalley
p29
aVcastro
p30
aVsoho
p31
aVharlem
p32
aVminutes
p33
aVside
p34
atp35
Rp36
.