c__builtin__
set
p0
((lp1
Vbushwick
p2
aVgolden
p3
aVbars
p4
aVart
p5
aVbart
p6
aVpeople
p7
aVsoma
p8
aVgalleries
p9
aVmission
p10
aVvillage
p11
aVclinton
p12
aVliving
p13
aVgreenpoint
p14
aVspace
p15
aVmuseum
p16
aVstuy
p17
aVwilliamsburg
p18
aVdolores
p19
aVhaight
p20
aVwhich
p21
aVvalencia
p22
aVbeach
p23
aVwe
p24
aVloft
p25
aVbus
p26
aVsafe
p27
aVpark
p28
aVbrooklyn
p29
aVtrain
p30
aVstuyvesant
p31
aVbedford
p32
aVcentral
p33
aVcastro
p34
atp35
Rp36
.