c__builtin__
set
p0
((lp1
Vprospect
p2
aVheart
p3
aVbars
p4
aVsquare
p5
aVbart
p6
aVgalleries
p7
aVmission
p8
aVvillage
p9
aVmarket
p10
aVglen
p11
aVunion
p12
aVwest
p13
aVwilliamsburg
p14
aVdolores
p15
aVheights
p16
aVother
p17
aVbest
p18
aVvalencia
p19
aVmanhattan
p20
aVavailable
p21
aVqueen
p22
aVpark
p23
aVbrooklyn
p24
aVtrain
p25
aVgate
p26
aVday
p27
aVjfk
p28
aVchelsea
p29
aVcastro
p30
aVso
p31
aVmoscone
p32
aVminutes
p33
aVgeary
p34
atp35
Rp36
.