c__builtin__
set
p0
((lp1
Vprospect
p2
aVupper
p3
aVbart
p4
aVheart
p5
aVhouse
p6
aVmission
p7
aVvillage
p8
aVclose
p9
aVglen
p10
aVunion
p11
aVmuseum
p12
aVwilliamsburg
p13
aVdolores
p14
aVzoo
p15
aVother
p16
aVhaight
p17
aVutica
p18
aVth
p19
aVnopa
p20
aVvalencia
p21
aVfull
p22
aVloft
p23
aVvery
p24
aVexpress
p25
aVpark
p26
aVtrain
p27
aVstuyvesant
p28
aVcentral
p29
aVisland
p30
aVlexington
p31
aValamo
p32
aVsubway
p33
aVside
p34
atp35
Rp36
.